Certificate:
    Data:
        Version: 3 (0x2)
        Serial Number: 305419902 (0x1234567e)
        Signature Algorithm: sha256WithRSAEncryption
        Issuer: CN=CA1_sha256_4096_65537_v3_ca
        Validity
            Not Before: Oct 19 17:29:56 2021 GMT
            Not After : Oct 17 17:29:56 2031 GMT
        Subject: CN=SRK3_sha256_4096_65537_v3_ca
        Subject Public Key Info:
            Public Key Algorithm: rsaEncryption
                RSA Public-Key: (4096 bit)
                Modulus:
                    00:c2:4e:a8:c5:39:74:08:b9:b7:0c:50:c3:49:31:
                    6e:a6:94:9e:3b:b3:6a:6e:e5:d0:8a:87:42:e0:99:
                    0a:fa:e6:b1:c1:0f:eb:ee:6a:9d:e8:2b:5b:56:d4:
                    1a:81:6e:54:d1:41:38:5c:e6:b0:75:50:1a:e8:b8:
                    69:09:81:87:a1:43:64:18:e5:8f:57:a1:30:45:f6:
                    f7:90:0d:ea:fa:d5:d0:0a:cd:80:f3:11:3d:8e:34:
                    30:53:d5:b2:e9:d7:b7:ca:ce:cb:01:6f:ad:ff:09:
                    a3:1a:27:c1:14:c0:af:ba:bd:2d:3b:75:53:42:3b:
                    5e:f4:5b:f5:83:d8:52:e0:d8:b5:b8:b2:da:11:33:
                    ca:8c:27:c9:67:69:7e:70:41:0e:6d:6e:ce:95:52:
                    b0:26:fc:18:bf:bf:74:18:db:a9:60:d8:65:84:54:
                    df:c4:c2:b7:30:cd:d0:04:ea:c5:8b:86:ab:fc:98:
                    b0:ca:65:c7:64:6e:26:5c:c9:b6:89:6a:b3:6d:50:
                    c1:cf:a1:51:63:51:44:30:e9:08:c2:d3:c0:de:ed:
                    49:b4:90:6c:88:db:ed:14:b7:e1:81:28:bd:03:86:
                    11:c4:7e:2e:4b:0c:48:95:32:1f:7a:d4:e7:b2:1a:
                    e5:8f:2f:0d:46:ab:f2:c6:2f:1e:8b:dc:d5:cf:a3:
                    6a:e5:7b:07:60:ee:18:16:39:b9:df:0b:a5:3b:73:
                    10:8c:b7:2f:65:6e:34:25:c2:c4:9a:47:04:29:22:
                    5d:ad:ca:0b:b9:53:dd:4e:f8:4b:58:a6:5e:6e:9c:
                    92:c8:5f:48:00:a3:b6:71:5c:a9:47:f9:7b:22:fc:
                    bc:4e:98:d7:7e:f8:3b:f8:09:ef:23:bd:e6:e8:cb:
                    c3:50:cd:d1:98:d6:1e:cb:02:33:63:6a:dc:89:a9:
                    26:51:c6:28:10:bf:0b:14:0b:42:52:1e:4e:61:7e:
                    20:3b:03:4e:6c:14:5c:5b:2a:6d:38:cb:95:15:e1:
                    e7:30:9c:91:1c:7a:89:e1:a9:66:33:26:0b:c9:a7:
                    af:0a:d1:62:15:8d:19:78:ef:47:a0:ac:11:4a:ae:
                    4f:9b:09:28:22:5f:f5:15:3e:29:83:f4:bf:f7:7d:
                    4e:f0:af:cb:49:63:5c:76:c1:a0:09:9a:51:6b:c5:
                    cb:39:91:a6:04:55:73:b7:9a:c1:6d:bd:77:71:0f:
                    9f:df:31:55:04:06:66:e8:16:b7:08:ac:b4:44:86:
                    9a:57:32:07:4b:33:da:e8:88:66:f3:f3:0e:52:66:
                    a7:7e:74:82:82:d0:ff:fb:20:e5:7d:71:48:27:1d:
                    f6:61:5f:2b:d9:13:2f:ec:02:3c:ed:ee:77:8c:f8:
                    02:22:f7
                Exponent: 65537 (0x10001)
        X509v3 extensions:
            X509v3 Subject Key Identifier: 
                D0:D9:50:88:7C:60:10:3E:38:07:04:DB:50:0F:1B:A4:F3:EF:9F:81
            X509v3 Authority Key Identifier: 
                keyid:3E:98:BD:9D:78:73:7A:E1:18:B4:06:B0:CB:3B:97:4E:F7:31:1A:30
                DirName:/CN=CA1_sha256_4096_65537_v3_ca
                serial:7B:BF:64:15:79:71:16:7C:9F:B9:F8:04:0C:80:FE:49:3E:B1:BF:AA

            X509v3 Basic Constraints: critical
                CA:TRUE
            X509v3 Key Usage: 
                Certificate Sign
    Signature Algorithm: sha256WithRSAEncryption
         9e:08:32:a7:56:2a:ab:ba:77:fa:8f:78:99:96:d8:f9:15:cc:
         56:4f:f6:4d:bb:35:93:9c:6d:3b:1a:9b:06:55:bf:9c:66:10:
         ad:d2:2b:4d:d0:84:f9:37:eb:25:f2:f5:47:fd:6e:0b:0f:b2:
         2a:38:61:09:11:fd:94:21:bf:81:75:36:76:54:91:e5:dd:ee:
         35:76:9b:7d:11:db:33:92:f5:00:aa:f2:43:5c:2f:ce:ba:c1:
         97:b7:82:e0:e5:5f:7f:a3:b4:66:3e:e4:00:11:3a:1d:bf:60:
         f8:b8:ab:00:4b:0b:83:20:21:aa:2a:16:17:a3:2c:40:93:14:
         7c:89:5a:12:f4:c5:b3:9d:c7:7c:5e:b1:e1:72:b4:12:eb:11:
         2e:9b:5b:98:5d:2e:fa:9a:08:69:00:13:71:84:56:f3:8e:9a:
         66:9c:9f:f0:5e:16:8f:42:c8:10:fb:49:14:05:1d:78:e4:08:
         5f:e2:0d:4a:99:6c:c4:a6:7f:58:6b:84:f8:cc:6a:c4:89:05:
         e5:db:bc:74:b4:8d:b0:36:0e:7f:8b:85:00:ac:10:be:00:71:
         60:d6:90:78:d5:88:38:a1:90:44:fb:3c:16:13:40:50:91:9a:
         a8:c1:90:38:0e:4a:27:7e:4b:26:90:ba:44:94:27:6d:72:8b:
         92:06:3a:c0:dd:8c:a5:18:59:31:e1:b8:2d:78:7c:0a:bc:53:
         8e:cd:94:63:7b:3f:4d:03:4d:1e:04:29:c4:80:53:0d:34:97:
         70:80:94:86:d6:c2:7f:8d:1e:d4:23:5c:b8:ba:91:64:97:14:
         3d:2b:7f:e2:da:7a:41:e7:e8:09:ee:36:3d:28:a5:64:32:8d:
         76:97:88:b4:fd:75:f8:51:5c:a9:e7:36:ec:59:7c:45:94:f9:
         fa:93:2f:a4:f4:7f:2a:a1:35:45:af:21:f2:86:9c:1c:07:fd:
         e2:ae:54:94:2e:89:0e:fd:fb:70:69:ef:41:ef:18:40:d8:7a:
         61:fc:4f:22:5f:5f:a5:53:b5:51:64:8e:d8:84:50:bd:ca:91:
         f4:65:d5:95:35:f0:e7:65:5f:36:03:ba:da:e8:fb:38:3b:1c:
         bf:d7:f9:c5:f5:7b:4d:ee:d9:c0:4f:68:64:74:60:84:e6:e2:
         89:6b:cb:7b:62:8e:ad:70:f0:5b:08:b4:6a:0e:1a:9f:74:fe:
         04:7d:75:b0:7b:7d:77:d7:a9:03:b2:8e:7a:47:4a:95:63:76:
         87:5c:bb:d6:13:bf:df:ea:2a:cb:11:4c:49:3c:56:da:c7:10:
         6b:9c:57:75:4d:55:21:bd:1b:1f:d0:25:b7:29:42:16:23:9f:
         0f:ee:c4:eb:03:11:0e:24
-----BEGIN CERTIFICATE-----
MIIFbzCCA1egAwIBAgIEEjRWfjANBgkqhkiG9w0BAQsFADAmMSQwIgYDVQQDFBtD
QTFfc2hhMjU2XzQwOTZfNjU1MzdfdjNfY2EwHhcNMjExMDE5MTcyOTU2WhcNMzEx
MDE3MTcyOTU2WjAnMSUwIwYDVQQDDBxTUkszX3NoYTI1Nl80MDk2XzY1NTM3X3Yz
X2NhMIICIjANBgkqhkiG9w0BAQEFAAOCAg8AMIICCgKCAgEAwk6oxTl0CLm3DFDD
STFuppSeO7NqbuXQiodC4JkK+uaxwQ/r7mqd6CtbVtQagW5U0UE4XOawdVAa6Lhp
CYGHoUNkGOWPV6EwRfb3kA3q+tXQCs2A8xE9jjQwU9Wy6de3ys7LAW+t/wmjGifB
FMCvur0tO3VTQjte9Fv1g9hS4Ni1uLLaETPKjCfJZ2l+cEEObW7OlVKwJvwYv790
GNupYNhlhFTfxMK3MM3QBOrFi4ar/JiwymXHZG4mXMm2iWqzbVDBz6FRY1FEMOkI
wtPA3u1JtJBsiNvtFLfhgSi9A4YRxH4uSwxIlTIfetTnshrljy8NRqvyxi8ei9zV
z6Nq5XsHYO4YFjm53wulO3MQjLcvZW40JcLEmkcEKSJdrcoLuVPdTvhLWKZebpyS
yF9IAKO2cVypR/l7Ivy8TpjXfvg7+AnvI73m6MvDUM3RmNYeywIzY2rciakmUcYo
EL8LFAtCUh5OYX4gOwNObBRcWyptOMuVFeHnMJyRHHqJ4almMyYLyaevCtFiFY0Z
eO9HoKwRSq5PmwkoIl/1FT4pg/S/931O8K/LSWNcdsGgCZpRa8XLOZGmBFVzt5rB
bb13cQ+f3zFVBAZm6Ba3CKy0RIaaVzIHSzPa6Ihm8/MOUmanfnSCgtD/+yDlfXFI
Jx32YV8r2RMv7AI87e53jPgCIvcCAwEAAaOBozCBoDAdBgNVHQ4EFgQU0NlQiHxg
ED44BwTbUA8bpPPvn4EwYQYDVR0jBFowWIAUPpi9nXhzeuEYtAawyzuXTvcxGjCh
KqQoMCYxJDAiBgNVBAMUG0NBMV9zaGEyNTZfNDA5Nl82NTUzN192M19jYYIUe79k
FXlxFnyfufgEDID+ST6xv6owDwYDVR0TAQH/BAUwAwEB/zALBgNVHQ8EBAMCAgQw
DQYJKoZIhvcNAQELBQADggIBAJ4IMqdWKqu6d/qPeJmW2PkVzFZP9k27NZOcbTsa
mwZVv5xmEK3SK03QhPk36yXy9Uf9bgsPsio4YQkR/ZQhv4F1NnZUkeXd7jV2m30R
2zOS9QCq8kNcL866wZe3guDlX3+jtGY+5AAROh2/YPi4qwBLC4MgIaoqFhejLECT
FHyJWhL0xbOdx3xeseFytBLrES6bW5hdLvqaCGkAE3GEVvOOmmacn/BeFo9CyBD7
SRQFHXjkCF/iDUqZbMSmf1hrhPjMasSJBeXbvHS0jbA2Dn+LhQCsEL4AcWDWkHjV
iDihkET7PBYTQFCRmqjBkDgOSid+SyaQukSUJ21yi5IGOsDdjKUYWTHhuC14fAq8
U47NlGN7P00DTR4EKcSAUw00l3CAlIbWwn+NHtQjXLi6kWSXFD0rf+LaekHn6Anu
Nj0opWQyjXaXiLT9dfhRXKnnNuxZfEWU+fqTL6T0fyqhNUWvIfKGnBwH/eKuVJQu
iQ79+3Bp70HvGEDYemH8TyJfX6VTtVFkjtiEUL3KkfRl1ZU18OdlXzYDutro+zg7
HL/X+cX1e03u2cBPaGR0YITm4olry3tijq1w8FsItGoOGp90/gR9dbB7fXfXqQOy
jnpHSpVjdodcu9YTv9/qKssRTEk8VtrHEGucV3VNVSG9Gx/QJbcpQhYjnw/uxOsD
EQ4k
-----END CERTIFICATE-----
