Certificate:
    Data:
        Version: 3 (0x2)
        Serial Number: 305419906 (0x12345682)
        Signature Algorithm: sha256WithRSAEncryption
        Issuer: CN=SRK4_sha256_4096_65537_v3_ca
        Validity
            Not Before: Oct 19 17:29:59 2021 GMT
            Not After : Oct 17 17:29:59 2031 GMT
        Subject: CN=CSF4_1_sha256_4096_65537_v3_usr
        Subject Public Key Info:
            Public Key Algorithm: rsaEncryption
                RSA Public-Key: (4096 bit)
                Modulus:
                    00:af:56:8d:6f:82:21:8a:7d:47:fb:f5:ec:c1:5e:
                    c7:6a:7b:b0:a6:88:39:dc:23:00:02:0d:40:28:21:
                    d8:61:57:09:5b:38:f7:66:53:cb:d4:a1:18:d9:0e:
                    13:5a:0e:dc:99:57:3e:32:f0:02:7f:aa:87:b8:dd:
                    a9:80:ee:46:12:66:2f:4a:2e:1a:8d:ae:06:8d:e6:
                    e9:39:52:ae:f9:08:9e:84:6b:be:96:c8:45:24:49:
                    ba:ab:74:de:07:d1:8f:b9:4d:d8:df:2d:eb:61:8b:
                    c4:0f:83:28:c3:6e:24:8e:c9:4f:b1:4f:36:7b:28:
                    a0:81:ac:35:9e:65:35:22:8b:55:b2:36:f2:bf:3d:
                    99:35:6a:be:dc:3c:ee:50:c4:91:3b:b1:2b:a3:c7:
                    8c:0d:f5:5d:6d:09:e0:d5:38:24:03:2e:71:42:c5:
                    0b:da:49:dc:2e:61:f5:18:11:28:3e:1e:59:b2:50:
                    ed:7e:15:3b:b8:0d:56:3e:2e:5e:87:f3:fc:72:fb:
                    9e:87:6f:c2:c2:8c:d6:bf:4b:31:38:f0:ef:c3:fc:
                    b3:7d:3c:0c:1e:5a:fe:92:34:82:08:8f:e3:47:e1:
                    24:9a:f9:0e:ed:5a:3e:5f:40:9b:29:03:18:d6:6a:
                    e8:fb:55:c7:4e:83:22:8e:26:51:b1:9d:a4:d6:56:
                    da:bb:e2:c4:61:05:60:01:26:04:ec:f7:9d:72:2d:
                    ee:af:3b:b9:38:2e:23:5a:90:bb:4f:c2:11:b3:fe:
                    d5:26:6c:ec:0f:b5:d2:e9:88:9d:fe:f2:f0:87:50:
                    57:aa:f6:25:a7:b3:f7:aa:33:f3:a9:71:ef:f3:60:
                    08:bb:9f:e8:8f:f1:d3:db:38:fe:54:cb:3d:34:4b:
                    ba:ec:a5:14:9c:1e:48:04:bf:ba:72:af:9d:74:5c:
                    34:5d:8a:35:19:28:9b:e2:87:71:cc:cc:74:76:f1:
                    26:3f:3f:a5:c3:3c:a7:c5:11:51:53:79:f3:6d:fe:
                    a8:60:ce:73:20:20:b7:45:e5:3b:1e:5b:7c:7e:5c:
                    09:6f:e3:f6:0e:49:bf:bf:4b:73:77:b0:a2:0d:ad:
                    11:67:5e:75:b1:56:cd:91:b2:f4:b1:f2:50:57:39:
                    02:b0:58:52:67:25:be:56:5a:a7:df:cf:89:f8:96:
                    04:30:1a:34:f1:00:ea:24:31:f3:9b:67:99:22:d2:
                    5c:08:7e:cb:33:a5:78:03:2f:05:c4:fb:f2:fe:6f:
                    07:02:c7:49:7e:56:4c:76:31:c2:66:e3:c4:1b:ea:
                    03:63:d0:9b:c4:77:2e:29:4f:07:85:f6:98:87:32:
                    d7:ba:f5:c9:10:b7:c8:82:c1:a9:3d:c6:0d:ae:e4:
                    02:ba:fb
                Exponent: 65537 (0x10001)
        X509v3 extensions:
            X509v3 Basic Constraints: 
                CA:FALSE
            Netscape Comment: 
                OpenSSL Generated Certificate
            X509v3 Subject Key Identifier: 
                A4:5D:E6:F2:09:FD:80:40:D0:02:9F:95:E2:F0:6F:B6:7D:0C:F4:CD
            X509v3 Authority Key Identifier: 
                keyid:6F:1C:C3:B0:0B:5A:44:E2:F3:70:D5:87:B4:0C:5A:4B:3C:0A:74:3E

    Signature Algorithm: sha256WithRSAEncryption
         32:e7:db:d9:22:d1:4b:90:14:f4:68:71:f5:d5:12:e8:b7:c5:
         90:df:21:d6:e8:ad:7d:e5:79:12:be:95:7b:c3:64:40:d2:72:
         87:eb:6b:5d:bd:2d:62:38:1e:7b:68:61:40:e9:77:9e:80:02:
         96:76:7d:3a:e4:12:d6:63:f8:b8:bb:3e:e0:55:92:33:d9:0c:
         5f:b4:ce:cd:6d:9d:34:c5:58:f4:e8:1e:3d:ba:f2:72:22:1d:
         c7:fb:e5:0e:c9:d2:dc:b1:d3:fb:da:7a:9c:d8:4e:6b:e2:f4:
         fc:bd:b8:7e:12:12:dc:f1:54:78:ab:97:2c:1f:5a:b3:dc:91:
         9d:25:d7:68:ab:78:54:cd:b9:f7:c1:21:59:41:74:48:33:50:
         08:03:0e:f3:96:16:78:ba:9a:42:4f:3e:ce:8f:df:1e:54:cc:
         cb:45:b4:97:32:bb:20:52:1b:ab:a6:96:04:ae:ff:1b:85:c1:
         7d:d3:b1:b4:71:01:04:90:27:14:f7:c7:f0:8d:35:96:6a:ea:
         6a:3b:22:e5:10:be:40:40:ad:3d:14:28:45:e4:cc:9f:67:90:
         1b:05:f6:0a:8e:86:33:cf:68:8e:d7:7b:44:8b:db:e3:da:54:
         b3:8b:22:66:d4:35:04:cb:74:ea:48:57:28:7e:6a:19:11:3e:
         eb:7e:e5:c4:c0:67:1f:35:a4:5a:7f:5a:60:79:10:d5:af:2f:
         e2:e5:13:b1:b3:4e:c0:42:55:6b:a5:5a:ee:70:87:8c:a0:5a:
         db:bc:94:a3:2a:3b:6f:f4:ff:79:35:89:c8:c8:d3:0e:d1:30:
         a3:62:5f:f5:3c:3a:fb:63:30:1d:98:66:c3:a3:c8:f0:4f:72:
         0c:0b:c7:b6:2e:06:2f:d4:59:ac:8d:6b:72:22:f8:5d:65:a3:
         41:1e:84:48:1d:af:a4:2f:1e:bc:5d:36:e1:18:32:fc:d3:db:
         72:8d:5d:24:e4:39:9b:97:3f:d8:5e:88:f0:5e:ee:19:3e:f5:
         97:c2:50:cb:99:b8:68:30:5c:3a:5a:8e:69:4c:36:a5:93:12:
         6b:77:e5:c8:d3:57:d7:92:4e:2e:95:69:48:4b:b7:59:bb:a5:
         e1:d7:99:79:df:ec:96:90:65:93:55:af:64:1f:47:ad:8c:9b:
         5f:18:33:d4:c1:58:47:38:f6:96:29:d7:6b:6d:8c:fa:59:92:
         1c:db:04:a5:40:b9:03:1e:20:66:73:44:6d:d3:eb:07:23:50:
         15:29:bb:d2:37:cf:b3:11:cd:b3:7c:7d:79:d4:35:53:22:ff:
         cb:6b:fa:52:9b:e2:7f:57:56:6b:23:c4:26:93:be:9f:9c:62:
         fd:70:09:4a:6c:af:12:ae
-----BEGIN CERTIFICATE-----
MIIFSjCCAzKgAwIBAgIEEjRWgjANBgkqhkiG9w0BAQsFADAnMSUwIwYDVQQDDBxT
Uks0X3NoYTI1Nl80MDk2XzY1NTM3X3YzX2NhMB4XDTIxMTAxOTE3Mjk1OVoXDTMx
MTAxNzE3Mjk1OVowKjEoMCYGA1UEAwwfQ1NGNF8xX3NoYTI1Nl80MDk2XzY1NTM3
X3YzX3VzcjCCAiIwDQYJKoZIhvcNAQEBBQADggIPADCCAgoCggIBAK9WjW+CIYp9
R/v17MFex2p7sKaIOdwjAAINQCgh2GFXCVs492ZTy9ShGNkOE1oO3JlXPjLwAn+q
h7jdqYDuRhJmL0ouGo2uBo3m6TlSrvkInoRrvpbIRSRJuqt03gfRj7lN2N8t62GL
xA+DKMNuJI7JT7FPNnsooIGsNZ5lNSKLVbI28r89mTVqvtw87lDEkTuxK6PHjA31
XW0J4NU4JAMucULFC9pJ3C5h9RgRKD4eWbJQ7X4VO7gNVj4uXofz/HL7nodvwsKM
1r9LMTjw78P8s308DB5a/pI0ggiP40fhJJr5Du1aPl9AmykDGNZq6PtVx06DIo4m
UbGdpNZW2rvixGEFYAEmBOz3nXIt7q87uTguI1qQu0/CEbP+1SZs7A+10umInf7y
8IdQV6r2Jaez96oz86lx7/NgCLuf6I/x09s4/lTLPTRLuuylFJweSAS/unKvnXRc
NF2KNRkom+KHcczMdHbxJj8/pcM8p8URUVN5823+qGDOcyAgt0XlOx5bfH5cCW/j
9g5Jv79Lc3ewog2tEWdedbFWzZGy9LHyUFc5ArBYUmclvlZap9/PifiWBDAaNPEA
6iQx85tnmSLSXAh+yzOleAMvBcT78v5vBwLHSX5WTHYxwmbjxBvqA2PQm8R3LilP
B4X2mIcy17r1yRC3yILBqT3GDa7kArr7AgMBAAGjezB5MAkGA1UdEwQCMAAwLAYJ
YIZIAYb4QgENBB8WHU9wZW5TU0wgR2VuZXJhdGVkIENlcnRpZmljYXRlMB0GA1Ud
DgQWBBSkXebyCf2AQNACn5Xi8G+2fQz0zTAfBgNVHSMEGDAWgBRvHMOwC1pE4vNw
1Ye0DFpLPAp0PjANBgkqhkiG9w0BAQsFAAOCAgEAMufb2SLRS5AU9Ghx9dUS6LfF
kN8h1uitfeV5Er6Ve8NkQNJyh+trXb0tYjgee2hhQOl3noAClnZ9OuQS1mP4uLs+
4FWSM9kMX7TOzW2dNMVY9OgePbryciIdx/vlDsnS3LHT+9p6nNhOa+L0/L24fhIS
3PFUeKuXLB9as9yRnSXXaKt4VM2598EhWUF0SDNQCAMO85YWeLqaQk8+zo/fHlTM
y0W0lzK7IFIbq6aWBK7/G4XBfdOxtHEBBJAnFPfH8I01lmrqajsi5RC+QECtPRQo
ReTMn2eQGwX2Co6GM89ojtd7RIvb49pUs4siZtQ1BMt06khXKH5qGRE+637lxMBn
HzWkWn9aYHkQ1a8v4uUTsbNOwEJVa6Va7nCHjKBa27yUoyo7b/T/eTWJyMjTDtEw
o2Jf9Tw6+2MwHZhmw6PI8E9yDAvHti4GL9RZrI1rciL4XWWjQR6ESB2vpC8evF02
4Rgy/NPbco1dJOQ5m5c/2F6I8F7uGT71l8JQy5m4aDBcOlqOaUw2pZMSa3flyNNX
15JOLpVpSEu3Wbul4deZed/slpBlk1WvZB9HrYybXxgz1MFYRzj2linXa22M+lmS
HNsEpUC5Ax4gZnNEbdPrByNQFSm70jfPsxHNs3x9edQ1UyL/y2v6Upvif1dWayPE
JpO+n5xi/XAJSmyvEq4=
-----END CERTIFICATE-----
