Certificate:
    Data:
        Version: 3 (0x2)
        Serial Number: 305419897 (0x12345679)
        Signature Algorithm: sha256WithRSAEncryption
        Issuer: CN=SRK1_sha256_4096_65537_v3_ca
        Validity
            Not Before: Oct 19 17:29:55 2021 GMT
            Not After : Oct 17 17:29:55 2031 GMT
        Subject: CN=CSF1_1_sha256_4096_65537_v3_usr
        Subject Public Key Info:
            Public Key Algorithm: rsaEncryption
                RSA Public-Key: (4096 bit)
                Modulus:
                    00:a1:fc:bb:8e:72:2b:0d:12:78:7b:e8:e9:0e:12:
                    83:0a:da:16:3c:17:a5:24:fd:8e:cf:12:2f:32:b9:
                    6c:61:0a:e9:ce:e0:28:aa:4a:10:1e:51:c0:04:fc:
                    20:d2:fd:a3:07:92:85:62:99:b0:6c:72:28:e6:e8:
                    b1:94:28:32:b7:4c:84:b5:84:1d:fe:58:e2:cd:f3:
                    0b:75:f1:3e:79:89:b8:76:c9:86:19:a9:b0:47:df:
                    51:c2:18:b9:bb:8a:63:5b:02:43:32:b4:da:16:37:
                    8a:3b:da:dd:58:37:8d:34:08:2c:08:80:b8:5a:63:
                    fb:64:1f:97:e4:d8:33:46:ee:e4:f5:60:cf:cc:c8:
                    a2:a7:3f:91:b9:68:04:59:54:7b:a3:32:38:73:33:
                    21:35:48:79:9d:d4:e8:4b:4f:77:01:57:55:44:f5:
                    80:71:50:ab:4e:69:20:0a:b0:e4:cf:27:3b:a9:21:
                    09:55:18:ae:1b:5e:a2:27:46:4c:b6:57:d2:94:25:
                    1c:8c:bf:7c:fe:81:64:2e:c3:a2:eb:eb:00:86:be:
                    eb:49:e7:21:c3:26:8f:10:d6:f2:db:91:7d:73:e9:
                    ef:a7:a9:64:c5:49:f1:44:43:07:67:dd:d9:27:d2:
                    90:b8:3d:b1:a4:d1:7d:49:d1:ab:33:ee:a3:70:e9:
                    e6:39:82:3b:d7:ac:12:27:d9:97:bd:81:87:2b:6e:
                    80:55:2f:52:cc:3b:30:a1:11:01:1e:91:89:4c:dc:
                    b6:3d:0a:38:14:6f:27:f7:0c:8b:16:74:43:23:11:
                    0e:9b:a5:a2:90:40:c9:c6:93:6a:62:dd:4e:1c:38:
                    c6:2c:90:46:a1:0f:ea:05:69:68:c2:d4:48:4b:64:
                    5e:c0:5c:e8:27:52:75:1b:0e:4d:00:a9:6e:01:c9:
                    55:c3:d8:28:af:23:75:4c:11:d4:a2:a2:7f:bb:ba:
                    22:d6:d1:22:ce:e6:b3:f2:a8:d7:95:54:43:dd:f1:
                    e2:29:4a:a9:03:9e:9e:b1:0b:cc:5c:fd:5f:7e:47:
                    26:52:d2:7c:85:f8:e9:36:8b:11:3c:8c:41:29:59:
                    c0:89:2c:b9:ab:c4:1e:44:4b:41:af:c9:e6:c0:2f:
                    b4:a0:9c:fe:aa:e6:6e:99:f8:74:b0:65:c4:38:b4:
                    ef:6e:15:36:f2:e3:b5:18:44:52:d4:26:e1:4b:99:
                    31:71:1b:73:77:bb:54:78:51:c2:8c:d4:d6:45:e0:
                    37:09:22:1b:80:30:53:3f:ee:98:fb:6b:42:45:66:
                    26:8e:2e:99:4d:c2:fa:e7:c4:b1:d4:07:32:39:76:
                    5a:73:ee:89:a8:c0:1c:2d:7f:ae:b6:40:31:72:49:
                    a1:43:d1
                Exponent: 65537 (0x10001)
        X509v3 extensions:
            X509v3 Basic Constraints: 
                CA:FALSE
            Netscape Comment: 
                OpenSSL Generated Certificate
            X509v3 Subject Key Identifier: 
                4F:DD:16:25:F7:08:3B:E1:7C:55:76:63:87:7F:A6:2B:27:BA:6E:00
            X509v3 Authority Key Identifier: 
                keyid:CA:15:A4:98:80:FE:B5:52:1E:D5:3E:C0:36:C3:69:20:72:2D:73:32

    Signature Algorithm: sha256WithRSAEncryption
         8e:33:a1:4b:92:e6:10:64:22:02:d5:44:b6:dc:75:33:ae:03:
         49:54:7e:1a:d7:dd:27:a7:07:b8:06:da:4e:66:7a:6f:c6:27:
         a4:42:64:f8:db:72:53:98:7e:c6:68:31:b8:68:be:7a:15:e3:
         b1:18:70:c7:65:dc:30:e8:f6:2d:52:d0:be:79:01:c2:7c:80:
         9a:16:4d:dc:46:c0:f5:f7:42:8d:4f:57:a2:8b:ed:d5:26:45:
         75:d6:8e:b0:4e:4b:96:a0:f3:2a:6f:b3:35:70:6f:e3:b0:47:
         9f:9c:01:7a:fa:18:70:a9:9b:b4:9d:c7:09:11:d3:95:ee:0c:
         0c:50:3f:2f:eb:fd:26:bb:54:fa:13:f0:2a:1a:f1:fe:50:0b:
         bd:f0:d5:a0:18:f7:6d:4c:48:21:36:51:87:9d:0b:e0:c7:39:
         26:ff:6d:a2:f8:97:ff:e1:e6:05:0c:ef:8d:6f:34:69:22:11:
         4a:7a:48:7d:ca:fb:81:43:4d:96:df:33:14:c2:77:0f:76:66:
         5b:cf:34:93:fd:74:6f:07:3a:66:ef:06:f9:72:44:c1:1a:d2:
         1b:a2:8f:0a:30:14:82:6a:2f:0d:ca:24:d0:4b:4e:46:43:b5:
         e3:36:95:7c:60:d2:2d:b3:cd:5b:40:4a:38:93:26:fd:e1:b9:
         aa:f2:fd:cd:7e:91:9c:9e:4f:6b:0d:77:c7:48:1d:e2:09:37:
         40:3e:8f:10:19:ab:7d:90:70:34:07:20:2c:6a:46:eb:49:69:
         e7:47:e5:68:3e:19:e6:2c:55:93:c9:1a:ba:75:dc:45:12:59:
         aa:5b:17:75:fe:06:b8:b7:91:49:34:74:c5:35:08:0e:bb:b7:
         ec:5c:0b:d2:f6:5c:37:c6:82:0b:f7:c9:5c:6d:29:a2:da:3b:
         f0:34:21:6b:dc:dd:95:3b:14:50:77:6e:24:9a:ca:ee:4a:4b:
         24:9f:38:26:d9:8d:df:d4:52:fa:a1:f0:0d:bf:8c:63:39:48:
         e9:b2:ed:0b:37:bc:4e:db:25:fa:a8:82:1d:35:9c:01:b3:98:
         d0:48:a2:33:31:96:f7:80:25:07:5d:1f:8a:c9:b4:95:25:50:
         f5:29:40:c6:48:32:83:a9:61:f3:f1:80:39:48:d1:a0:4e:da:
         7c:96:f5:fd:b0:70:4a:e6:dc:77:37:53:91:79:45:83:cd:5c:
         d2:73:9d:29:7e:83:68:19:c3:38:37:43:c2:f7:00:ee:6d:1c:
         be:9b:39:8e:8d:6b:65:ed:c5:3e:d3:b0:59:b8:ed:37:1f:01:
         38:f6:d8:2b:b5:9f:27:69:f0:d3:b5:9f:26:0b:1e:c4:22:63:
         3d:44:64:a4:6f:cf:4a:6f
-----BEGIN CERTIFICATE-----
MIIFSjCCAzKgAwIBAgIEEjRWeTANBgkqhkiG9w0BAQsFADAnMSUwIwYDVQQDDBxT
UksxX3NoYTI1Nl80MDk2XzY1NTM3X3YzX2NhMB4XDTIxMTAxOTE3Mjk1NVoXDTMx
MTAxNzE3Mjk1NVowKjEoMCYGA1UEAwwfQ1NGMV8xX3NoYTI1Nl80MDk2XzY1NTM3
X3YzX3VzcjCCAiIwDQYJKoZIhvcNAQEBBQADggIPADCCAgoCggIBAKH8u45yKw0S
eHvo6Q4SgwraFjwXpST9js8SLzK5bGEK6c7gKKpKEB5RwAT8INL9oweShWKZsGxy
KObosZQoMrdMhLWEHf5Y4s3zC3XxPnmJuHbJhhmpsEffUcIYubuKY1sCQzK02hY3
ijva3Vg3jTQILAiAuFpj+2Qfl+TYM0bu5PVgz8zIoqc/kbloBFlUe6MyOHMzITVI
eZ3U6EtPdwFXVUT1gHFQq05pIAqw5M8nO6khCVUYrhteoidGTLZX0pQlHIy/fP6B
ZC7DouvrAIa+60nnIcMmjxDW8tuRfXPp76epZMVJ8URDB2fd2SfSkLg9saTRfUnR
qzPuo3Dp5jmCO9esEifZl72BhytugFUvUsw7MKERAR6RiUzctj0KOBRvJ/cMixZ0
QyMRDpulopBAycaTamLdThw4xiyQRqEP6gVpaMLUSEtkXsBc6CdSdRsOTQCpbgHJ
VcPYKK8jdUwR1KKif7u6ItbRIs7ms/Ko15VUQ93x4ilKqQOenrELzFz9X35HJlLS
fIX46TaLETyMQSlZwIksuavEHkRLQa/J5sAvtKCc/qrmbpn4dLBlxDi0724VNvLj
tRhEUtQm4UuZMXEbc3e7VHhRwozU1kXgNwkiG4AwUz/umPtrQkVmJo4umU3C+ufE
sdQHMjl2WnPuiajAHC1/rrZAMXJJoUPRAgMBAAGjezB5MAkGA1UdEwQCMAAwLAYJ
YIZIAYb4QgENBB8WHU9wZW5TU0wgR2VuZXJhdGVkIENlcnRpZmljYXRlMB0GA1Ud
DgQWBBRP3RYl9wg74XxVdmOHf6YrJ7puADAfBgNVHSMEGDAWgBTKFaSYgP61Uh7V
PsA2w2kgci1zMjANBgkqhkiG9w0BAQsFAAOCAgEAjjOhS5LmEGQiAtVEttx1M64D
SVR+GtfdJ6cHuAbaTmZ6b8YnpEJk+NtyU5h+xmgxuGi+ehXjsRhwx2XcMOj2LVLQ
vnkBwnyAmhZN3EbA9fdCjU9Xoovt1SZFddaOsE5LlqDzKm+zNXBv47BHn5wBevoY
cKmbtJ3HCRHTle4MDFA/L+v9JrtU+hPwKhrx/lALvfDVoBj3bUxIITZRh50L4Mc5
Jv9toviX/+HmBQzvjW80aSIRSnpIfcr7gUNNlt8zFMJ3D3ZmW880k/10bwc6Zu8G
+XJEwRrSG6KPCjAUgmovDcok0EtORkO14zaVfGDSLbPNW0BKOJMm/eG5qvL9zX6R
nJ5Paw13x0gd4gk3QD6PEBmrfZBwNAcgLGpG60lp50flaD4Z5ixVk8kaunXcRRJZ
qlsXdf4GuLeRSTR0xTUIDru37FwL0vZcN8aCC/fJXG0poto78DQha9zdlTsUUHdu
JJrK7kpLJJ84JtmN39RS+qHwDb+MYzlI6bLtCze8Ttsl+qiCHTWcAbOY0EiiMzGW
94AlB10fism0lSVQ9SlAxkgyg6lh8/GAOUjRoE7afJb1/bBwSubcdzdTkXlFg81c
0nOdKX6DaBnDODdDwvcA7m0cvps5jo1rZe3FPtOwWbjtNx8BOPbYK7WfJ2nw07Wf
JgsexCJjPURkpG/PSm8=
-----END CERTIFICATE-----
