Certificate:
    Data:
        Version: 3 (0x2)
        Serial Number: 305419904 (0x12345680)
        Signature Algorithm: sha256WithRSAEncryption
        Issuer: CN=SRK3_sha256_4096_65537_v3_ca
        Validity
            Not Before: Oct 19 17:29:58 2021 GMT
            Not After : Oct 17 17:29:58 2031 GMT
        Subject: CN=IMG3_1_sha256_4096_65537_v3_usr
        Subject Public Key Info:
            Public Key Algorithm: rsaEncryption
                RSA Public-Key: (4096 bit)
                Modulus:
                    00:bb:b1:cd:d9:6d:97:17:b7:0d:71:fe:d5:28:39:
                    cd:c9:3c:19:05:8a:a9:1d:38:59:3e:42:31:eb:bc:
                    d9:44:53:db:c4:bb:f1:30:e9:08:9f:46:e8:8e:80:
                    4c:7f:4a:5c:e1:ee:4a:26:b5:d8:46:34:c1:c9:26:
                    f9:fe:2a:c0:53:b1:a4:3b:01:72:07:e6:58:d2:8d:
                    be:20:55:97:1f:0a:f2:17:e6:99:fa:0b:26:10:58:
                    52:e0:b0:38:d1:12:7f:ca:eb:77:ed:4b:d4:fe:c7:
                    54:f2:2c:3e:50:e2:89:6f:df:57:63:96:73:87:8e:
                    63:e7:54:9f:1a:c9:ad:0f:21:0d:48:b6:53:ff:a7:
                    3a:40:c3:89:d6:6a:6a:e8:cd:71:00:8b:3a:8d:37:
                    d5:87:2c:36:8c:95:e9:ce:5b:1f:bb:25:1c:6c:88:
                    21:f4:ee:12:82:29:40:93:c0:b1:37:15:01:58:58:
                    21:92:cb:62:22:1f:ed:5b:94:e4:a4:c2:e7:94:77:
                    1b:33:fc:d6:d7:44:4f:bb:ee:60:2c:21:ab:d3:51:
                    a6:6f:b5:9a:85:d0:95:87:c7:6c:7d:58:e1:bf:51:
                    87:b5:00:0a:27:cc:2d:e8:e7:c4:98:93:6f:e6:d2:
                    8d:0d:ae:97:33:41:62:26:3c:d1:20:2f:aa:26:b0:
                    3d:b9:4b:0c:22:5b:66:bd:13:77:ea:bd:02:38:5a:
                    16:d4:25:25:81:81:ae:76:8e:ed:7b:95:56:d0:58:
                    63:b0:83:e8:7a:ce:bf:2f:e6:44:83:1e:08:be:72:
                    7f:62:f2:e2:20:7d:ea:ca:a5:f6:7a:c2:56:6c:cf:
                    01:e9:6e:a0:d6:75:cf:cd:80:a3:1d:0f:80:d0:b7:
                    07:7d:b3:2d:ea:bd:6d:98:e1:b8:4f:a4:12:cf:00:
                    e4:f7:83:f5:e5:c6:36:fd:e4:60:76:de:be:43:7d:
                    d8:86:78:ed:99:3b:89:49:16:d1:71:0e:26:69:49:
                    ab:bb:ae:fb:a4:43:93:02:e7:58:65:a7:ea:a0:46:
                    c0:aa:6a:aa:cd:cb:2a:1c:ce:21:d0:ed:48:bf:21:
                    ca:54:cf:f0:5d:c3:15:56:1b:d7:38:3e:da:d2:01:
                    5c:4b:ac:db:dd:34:c5:71:e8:6e:13:0d:a9:a2:1c:
                    de:a2:b9:19:29:91:c0:6a:36:6d:4e:0d:bf:ab:ab:
                    4b:ec:2e:de:76:de:79:ed:85:32:87:a8:8a:32:bb:
                    5f:a1:d3:1c:a2:62:e5:2c:50:7e:44:ce:1b:52:d3:
                    a3:0f:85:d7:8f:4e:66:64:c3:21:11:4d:46:a4:fc:
                    72:64:78:2f:bf:db:92:4c:64:d8:d5:35:54:d7:43:
                    a8:7a:11
                Exponent: 65537 (0x10001)
        X509v3 extensions:
            X509v3 Basic Constraints: 
                CA:FALSE
            Netscape Comment: 
                OpenSSL Generated Certificate
            X509v3 Subject Key Identifier: 
                A8:0D:6F:C4:25:30:78:B5:F5:75:98:7D:1E:37:80:44:C4:A1:6A:BD
            X509v3 Authority Key Identifier: 
                keyid:D0:D9:50:88:7C:60:10:3E:38:07:04:DB:50:0F:1B:A4:F3:EF:9F:81

    Signature Algorithm: sha256WithRSAEncryption
         69:66:67:fa:a4:5a:d9:9b:73:28:8a:5a:eb:4f:cb:bd:2b:f1:
         00:e5:11:b8:8e:c4:db:a8:64:a8:52:98:6e:9b:8f:7d:96:89:
         8f:17:58:7a:aa:40:39:85:2b:21:34:9f:54:55:26:4b:ef:44:
         9c:c8:a1:95:e3:0e:ce:f0:09:ee:e2:22:14:7c:17:6c:2f:a2:
         2d:37:6b:5e:71:5a:35:22:24:b0:9b:3c:89:ed:95:a6:9e:c4:
         77:af:75:82:48:11:17:ab:4a:b3:6b:60:bc:4e:12:63:6b:99:
         46:85:69:aa:55:ba:95:ae:02:4d:6a:97:cc:09:60:93:13:7e:
         ad:bd:53:91:8c:c8:dd:9b:92:d8:fa:a2:38:2b:31:30:ab:90:
         c9:91:18:14:de:6b:8b:42:a0:16:66:3f:3f:5d:9f:16:e2:a1:
         1f:d3:69:1e:fe:af:66:71:5b:71:ac:76:cd:49:8f:8e:0b:99:
         f7:62:cf:44:1a:e8:4a:a3:e1:2d:1f:f7:7f:b4:b3:f8:0b:9c:
         cb:80:50:e3:a5:83:a1:74:a8:da:78:a5:2c:95:1c:dd:e3:1c:
         70:a6:a2:4e:d0:8e:e6:d4:48:22:45:a3:20:84:cb:27:bb:ad:
         26:66:0d:1c:c8:c4:a6:78:c3:44:99:27:69:1a:31:e7:88:19:
         f2:7f:bb:1a:96:f0:aa:82:46:d9:9f:5b:e8:c5:04:2d:4b:f4:
         68:32:54:e0:f7:f7:33:a8:52:97:2d:eb:a8:e2:21:73:9e:fb:
         69:15:64:05:c9:d1:fe:ec:f1:fe:b7:a4:2c:63:c6:38:d4:55:
         36:c9:d8:4f:78:52:36:77:51:80:5b:1f:46:26:47:17:c2:c4:
         6b:85:c8:32:00:8c:8d:91:df:e1:c7:5a:57:54:26:78:59:26:
         fd:b0:25:75:02:6e:28:dc:98:6d:9a:5e:4f:59:63:3d:cd:c8:
         48:1b:0c:28:10:62:fe:47:0d:48:e9:e4:40:62:37:05:54:b6:
         3f:37:86:3e:fe:71:a4:e8:ee:0e:a9:50:34:bc:bb:66:ff:5f:
         a2:85:45:1a:74:91:77:06:4a:80:4e:f8:00:eb:6a:db:c6:0e:
         47:b5:2a:a7:bb:9f:c5:6a:22:af:63:16:23:de:e9:0a:97:5b:
         58:aa:a1:f4:69:cb:b7:bc:dc:f6:da:a4:f7:ef:77:45:0d:cf:
         22:d7:9f:77:92:92:f5:8f:42:ff:62:6d:47:ce:b5:48:63:af:
         15:32:53:bf:bd:ec:15:7e:b4:a8:69:3a:55:43:ee:c7:49:17:
         fb:08:d3:ba:0a:c1:39:cb:e7:2c:0f:19:48:8b:b7:29:e9:03:
         7f:92:ce:83:40:18:4e:19
-----BEGIN CERTIFICATE-----
MIIFSjCCAzKgAwIBAgIEEjRWgDANBgkqhkiG9w0BAQsFADAnMSUwIwYDVQQDDBxT
UkszX3NoYTI1Nl80MDk2XzY1NTM3X3YzX2NhMB4XDTIxMTAxOTE3Mjk1OFoXDTMx
MTAxNzE3Mjk1OFowKjEoMCYGA1UEAwwfSU1HM18xX3NoYTI1Nl80MDk2XzY1NTM3
X3YzX3VzcjCCAiIwDQYJKoZIhvcNAQEBBQADggIPADCCAgoCggIBALuxzdltlxe3
DXH+1Sg5zck8GQWKqR04WT5CMeu82URT28S78TDpCJ9G6I6ATH9KXOHuSia12EY0
wckm+f4qwFOxpDsBcgfmWNKNviBVlx8K8hfmmfoLJhBYUuCwONESf8rrd+1L1P7H
VPIsPlDiiW/fV2OWc4eOY+dUnxrJrQ8hDUi2U/+nOkDDidZqaujNcQCLOo031Ycs
NoyV6c5bH7slHGyIIfTuEoIpQJPAsTcVAVhYIZLLYiIf7VuU5KTC55R3GzP81tdE
T7vuYCwhq9NRpm+1moXQlYfHbH1Y4b9Rh7UACifMLejnxJiTb+bSjQ2ulzNBYiY8
0SAvqiawPblLDCJbZr0Td+q9AjhaFtQlJYGBrnaO7XuVVtBYY7CD6HrOvy/mRIMe
CL5yf2Ly4iB96sql9nrCVmzPAeluoNZ1z82Aox0PgNC3B32zLeq9bZjhuE+kEs8A
5PeD9eXGNv3kYHbevkN92IZ47Zk7iUkW0XEOJmlJq7uu+6RDkwLnWGWn6qBGwKpq
qs3LKhzOIdDtSL8hylTP8F3DFVYb1zg+2tIBXEus2900xXHobhMNqaIc3qK5GSmR
wGo2bU4Nv6urS+wu3nbeee2FMoeoijK7X6HTHKJi5SxQfkTOG1LTow+F149OZmTD
IRFNRqT8cmR4L7/bkkxk2NU1VNdDqHoRAgMBAAGjezB5MAkGA1UdEwQCMAAwLAYJ
YIZIAYb4QgENBB8WHU9wZW5TU0wgR2VuZXJhdGVkIENlcnRpZmljYXRlMB0GA1Ud
DgQWBBSoDW/EJTB4tfV1mH0eN4BExKFqvTAfBgNVHSMEGDAWgBTQ2VCIfGAQPjgH
BNtQDxuk8++fgTANBgkqhkiG9w0BAQsFAAOCAgEAaWZn+qRa2ZtzKIpa60/LvSvx
AOURuI7E26hkqFKYbpuPfZaJjxdYeqpAOYUrITSfVFUmS+9EnMihleMOzvAJ7uIi
FHwXbC+iLTdrXnFaNSIksJs8ie2Vpp7Ed691gkgRF6tKs2tgvE4SY2uZRoVpqlW6
la4CTWqXzAlgkxN+rb1TkYzI3ZuS2PqiOCsxMKuQyZEYFN5ri0KgFmY/P12fFuKh
H9NpHv6vZnFbcax2zUmPjguZ92LPRBroSqPhLR/3f7Sz+Aucy4BQ46WDoXSo2nil
LJUc3eMccKaiTtCO5tRIIkWjIITLJ7utJmYNHMjEpnjDRJknaRox54gZ8n+7Gpbw
qoJG2Z9b6MUELUv0aDJU4Pf3M6hSly3rqOIhc577aRVkBcnR/uzx/rekLGPGONRV
NsnYT3hSNndRgFsfRiZHF8LEa4XIMgCMjZHf4cdaV1QmeFkm/bAldQJuKNyYbZpe
T1ljPc3ISBsMKBBi/kcNSOnkQGI3BVS2PzeGPv5xpOjuDqlQNLy7Zv9fooVFGnSR
dwZKgE74AOtq28YOR7Uqp7ufxWoir2MWI97pCpdbWKqh9GnLt7zc9tqk9+93RQ3P
Itefd5KS9Y9C/2JtR861SGOvFTJTv73sFX60qGk6VUPux0kX+wjTugrBOcvnLA8Z
SIu3KekDf5LOg0AYThk=
-----END CERTIFICATE-----
