Certificate:
    Data:
        Version: 3 (0x2)
        Serial Number: 305419900 (0x1234567c)
        Signature Algorithm: sha256WithRSAEncryption
        Issuer: CN=SRK2_sha256_4096_65537_v3_ca
        Validity
            Not Before: Oct 19 17:29:56 2021 GMT
            Not After : Oct 17 17:29:56 2031 GMT
        Subject: CN=CSF2_1_sha256_4096_65537_v3_usr
        Subject Public Key Info:
            Public Key Algorithm: rsaEncryption
                RSA Public-Key: (4096 bit)
                Modulus:
                    00:ef:38:71:70:f8:68:66:18:33:98:19:13:90:2a:
                    97:d4:fa:b0:74:d0:68:16:35:6b:b1:05:39:c6:ba:
                    ef:75:85:b9:95:6f:ae:3d:08:8b:6a:77:be:88:71:
                    29:f5:2f:24:99:64:7b:b5:93:34:c4:ad:17:6a:fa:
                    6d:c4:0a:11:f8:b3:a7:6d:57:ae:77:96:12:c3:7b:
                    de:47:ae:30:f0:04:7a:e8:0a:97:2d:36:76:d1:8e:
                    7f:7d:09:dc:7b:aa:6c:b8:ea:2f:b5:ff:4e:68:f0:
                    b5:34:85:3d:44:90:d4:77:83:d4:74:b5:84:c3:4e:
                    8d:d4:10:3c:dc:94:a8:4d:67:94:05:8f:8a:2f:a0:
                    36:ac:9c:1d:2e:10:60:e7:e1:19:16:8a:c0:59:95:
                    a7:b6:3a:b6:68:d8:d9:94:5e:dc:5a:33:e2:0e:4d:
                    ce:73:51:82:93:8d:cd:b9:ce:cb:93:52:d1:4a:c0:
                    a2:14:66:03:74:ae:35:26:c4:00:72:35:e0:42:11:
                    11:be:50:ab:08:a8:69:67:af:d6:c3:e5:33:72:0a:
                    4f:87:95:c8:d6:f6:59:8a:af:1f:0b:fe:2a:aa:44:
                    76:62:9c:c6:56:e9:5a:08:ec:81:68:8d:96:4e:4b:
                    f7:1f:c9:b3:82:3f:1f:5a:5b:d6:c5:3c:ab:44:a7:
                    c0:3c:97:cd:44:89:d0:6d:54:b7:4a:d3:1b:f8:24:
                    24:aa:2a:4d:d2:98:83:df:d6:35:de:5f:ae:56:2e:
                    9b:d9:30:46:95:04:13:29:4e:de:4f:eb:7d:01:8b:
                    ae:2c:20:5c:19:98:29:f9:eb:79:fd:55:c9:61:a2:
                    da:ca:7f:2b:28:c2:55:fd:ee:0a:0b:3c:9f:13:40:
                    fd:2f:06:6b:f5:df:3c:6e:e9:4f:69:0c:93:24:98:
                    fd:81:ae:be:bb:c4:ee:d8:e0:79:b8:99:25:e9:c9:
                    ea:7b:3e:35:24:f8:00:1e:ad:92:87:cd:ed:ae:df:
                    de:41:fd:4d:d8:2b:b3:a7:d0:8e:02:a5:59:f0:45:
                    83:17:19:eb:95:73:70:99:04:4e:de:34:65:43:66:
                    d2:83:b3:bf:c5:7f:81:c0:13:27:d4:6e:4f:d9:49:
                    35:4c:a5:f3:47:79:1f:c0:75:53:85:c7:07:90:29:
                    14:9a:e6:2d:63:a8:75:e5:24:5a:07:f7:83:91:ce:
                    6b:e7:a8:78:eb:1d:59:36:01:5e:26:7b:82:d4:61:
                    97:39:46:9e:6e:6b:e0:01:23:fb:c0:1f:85:e9:1f:
                    ad:ae:76:da:a7:3f:d2:f8:9a:7c:50:38:64:2f:a9:
                    01:3c:0f:b4:f2:10:d0:38:40:22:95:83:99:6a:d7:
                    61:10:1f
                Exponent: 65537 (0x10001)
        X509v3 extensions:
            X509v3 Basic Constraints: 
                CA:FALSE
            Netscape Comment: 
                OpenSSL Generated Certificate
            X509v3 Subject Key Identifier: 
                59:81:4D:88:9D:EE:ED:E1:76:24:2E:6A:22:D7:5B:22:0F:F5:32:37
            X509v3 Authority Key Identifier: 
                keyid:D0:F6:86:C0:F2:37:27:51:F5:55:D4:A9:1D:C3:0A:D9:25:DB:C4:3E

    Signature Algorithm: sha256WithRSAEncryption
         0e:71:a8:83:a3:1a:93:38:68:43:48:4a:5e:8c:63:ac:22:07:
         2c:55:49:3b:0c:9c:62:f8:e2:a7:2a:c6:1f:ff:83:f7:3a:71:
         ce:5c:0d:11:11:e2:54:3d:e9:1e:86:d4:01:05:4a:55:37:33:
         6d:9b:ab:b9:71:71:e3:ec:f7:72:bd:6c:40:db:59:36:1f:0f:
         1c:f4:e4:d9:5e:01:45:01:a8:41:0d:cf:ec:ac:7e:3b:39:0d:
         1f:a9:3e:44:76:b4:dc:bc:d4:6a:1d:9e:bb:48:e1:a7:95:6a:
         96:fe:ea:d8:c4:c2:f5:00:55:7d:29:a3:3b:27:cc:6e:a9:2b:
         ec:55:78:b1:3d:ab:b7:1c:f2:49:02:04:ae:74:07:38:48:8d:
         0c:5f:62:4b:16:4e:1d:27:0c:13:73:9b:46:67:96:29:66:ae:
         a3:ec:7b:fc:ec:d4:47:5d:5f:bc:60:1a:b3:0a:3e:30:eb:9b:
         a7:44:ca:da:7e:c3:4e:c6:35:23:4b:a5:ae:19:a4:b7:3c:f3:
         1a:af:ed:ac:8d:3d:78:9d:95:6a:3a:31:a2:c6:23:93:9c:95:
         0b:7e:bd:2e:45:19:bf:9c:0b:fb:76:68:8d:09:ae:6e:d2:25:
         a8:34:3b:18:96:f2:4a:9f:a1:5f:b0:d5:ff:a4:3f:ef:a8:7d:
         12:32:a1:f6:18:92:fb:72:ce:be:69:95:79:3c:25:d1:ca:2c:
         aa:aa:8a:02:21:16:ae:bb:54:88:04:3b:f5:c1:ea:8d:10:19:
         93:b5:44:d3:86:61:30:42:a5:b7:17:3d:4a:6c:a9:4c:58:c7:
         29:a8:43:09:53:ef:f2:dd:20:30:3e:3b:41:95:c6:e8:0b:50:
         35:8f:e0:d3:4d:db:d0:42:8f:0b:81:47:ed:c3:82:a6:ec:d2:
         df:ee:06:9f:38:e3:ad:59:f7:e9:4f:22:ef:90:c3:5a:e1:27:
         65:6e:af:e2:fc:64:e8:4a:95:1f:ff:ea:b1:0c:68:85:17:78:
         aa:8d:fa:b1:5b:87:68:18:51:92:41:cc:e7:ca:1e:20:92:16:
         b1:cd:f5:af:f1:bf:2f:d1:34:c6:67:b5:c6:60:69:6e:53:9a:
         22:c7:21:9c:33:24:84:11:e2:12:75:2d:54:2f:57:d6:d0:e3:
         66:8d:8a:cd:ec:42:b9:4a:2b:49:38:fc:a7:33:97:4e:77:4b:
         1c:e8:6f:cc:2d:d0:64:44:d8:e7:ac:b7:89:e2:01:5c:c1:71:
         77:7d:e1:05:15:5f:5d:12:04:0b:44:1c:e6:e9:66:82:45:32:
         59:79:1f:9a:33:18:a1:77:d8:6e:98:66:07:79:4f:5a:28:39:
         0b:23:aa:e8:e3:9d:ed:c5
-----BEGIN CERTIFICATE-----
MIIFSjCCAzKgAwIBAgIEEjRWfDANBgkqhkiG9w0BAQsFADAnMSUwIwYDVQQDDBxT
UksyX3NoYTI1Nl80MDk2XzY1NTM3X3YzX2NhMB4XDTIxMTAxOTE3Mjk1NloXDTMx
MTAxNzE3Mjk1NlowKjEoMCYGA1UEAwwfQ1NGMl8xX3NoYTI1Nl80MDk2XzY1NTM3
X3YzX3VzcjCCAiIwDQYJKoZIhvcNAQEBBQADggIPADCCAgoCggIBAO84cXD4aGYY
M5gZE5Aql9T6sHTQaBY1a7EFOca673WFuZVvrj0Ii2p3vohxKfUvJJlke7WTNMSt
F2r6bcQKEfizp21XrneWEsN73keuMPAEeugKly02dtGOf30J3HuqbLjqL7X/Tmjw
tTSFPUSQ1HeD1HS1hMNOjdQQPNyUqE1nlAWPii+gNqycHS4QYOfhGRaKwFmVp7Y6
tmjY2ZRe3Foz4g5NznNRgpONzbnOy5NS0UrAohRmA3SuNSbEAHI14EIREb5Qqwio
aWev1sPlM3IKT4eVyNb2WYqvHwv+KqpEdmKcxlbpWgjsgWiNlk5L9x/Js4I/H1pb
1sU8q0SnwDyXzUSJ0G1Ut0rTG/gkJKoqTdKYg9/WNd5frlYum9kwRpUEEylO3k/r
fQGLriwgXBmYKfnref1VyWGi2sp/KyjCVf3uCgs8nxNA/S8Ga/XfPG7pT2kMkySY
/YGuvrvE7tjgebiZJenJ6ns+NST4AB6tkofN7a7f3kH9Tdgrs6fQjgKlWfBFgxcZ
65VzcJkETt40ZUNm0oOzv8V/gcATJ9RuT9lJNUyl80d5H8B1U4XHB5ApFJrmLWOo
deUkWgf3g5HOa+eoeOsdWTYBXiZ7gtRhlzlGnm5r4AEj+8Afhekfra522qc/0via
fFA4ZC+pATwPtPIQ0DhAIpWDmWrXYRAfAgMBAAGjezB5MAkGA1UdEwQCMAAwLAYJ
YIZIAYb4QgENBB8WHU9wZW5TU0wgR2VuZXJhdGVkIENlcnRpZmljYXRlMB0GA1Ud
DgQWBBRZgU2Ine7t4XYkLmoi11siD/UyNzAfBgNVHSMEGDAWgBTQ9obA8jcnUfVV
1KkdwwrZJdvEPjANBgkqhkiG9w0BAQsFAAOCAgEADnGog6MakzhoQ0hKXoxjrCIH
LFVJOwycYvjipyrGH/+D9zpxzlwNERHiVD3pHobUAQVKVTczbZuruXFx4+z3cr1s
QNtZNh8PHPTk2V4BRQGoQQ3P7Kx+OzkNH6k+RHa03LzUah2eu0jhp5Vqlv7q2MTC
9QBVfSmjOyfMbqkr7FV4sT2rtxzySQIErnQHOEiNDF9iSxZOHScME3ObRmeWKWau
o+x7/OzUR11fvGAaswo+MOubp0TK2n7DTsY1I0ulrhmktzzzGq/trI09eJ2Vajox
osYjk5yVC369LkUZv5wL+3ZojQmubtIlqDQ7GJbySp+hX7DV/6Q/76h9EjKh9hiS
+3LOvmmVeTwl0cosqqqKAiEWrrtUiAQ79cHqjRAZk7VE04ZhMEKltxc9SmypTFjH
KahDCVPv8t0gMD47QZXG6AtQNY/g003b0EKPC4FH7cOCpuzS3+4GnzjjrVn36U8i
75DDWuEnZW6v4vxk6EqVH//qsQxohRd4qo36sVuHaBhRkkHM58oeIJIWsc31r/G/
L9E0xme1xmBpblOaIschnDMkhBHiEnUtVC9X1tDjZo2KzexCuUorSTj8pzOXTndL
HOhvzC3QZETY56y3ieIBXMFxd33hBRVfXRIEC0Qc5ulmgkUyWXkfmjMYoXfYbphm
B3lPWig5CyOq6OOd7cU=
-----END CERTIFICATE-----
