Certificate:
    Data:
        Version: 3 (0x2)
        Serial Number: 305419899 (0x1234567b)
        Signature Algorithm: sha256WithRSAEncryption
        Issuer: CN=CA1_sha256_4096_65537_v3_ca
        Validity
            Not Before: Oct 19 17:29:56 2021 GMT
            Not After : Oct 17 17:29:56 2031 GMT
        Subject: CN=SRK2_sha256_4096_65537_v3_ca
        Subject Public Key Info:
            Public Key Algorithm: rsaEncryption
                RSA Public-Key: (4096 bit)
                Modulus:
                    00:ad:42:a6:e0:04:32:5c:8b:b8:81:e2:70:e5:b9:
                    01:3f:e0:b4:29:05:8a:5d:15:63:22:5f:fa:26:e3:
                    3a:e7:b4:4f:6f:e1:d3:a6:42:d3:78:8c:b4:18:49:
                    41:cd:42:f7:77:2d:bc:e0:77:a2:87:dc:d7:bd:da:
                    c0:63:57:03:ef:28:5e:ee:1f:9a:e8:60:22:c2:34:
                    12:7e:2c:9a:9e:2f:f0:53:b8:e3:2c:10:df:25:3b:
                    8d:ca:0e:27:4d:49:48:f3:d5:c5:e2:4e:b0:c0:d8:
                    27:36:48:35:a6:f0:d5:37:97:b3:f3:96:94:8e:7d:
                    b0:2a:d8:4d:08:9e:08:e3:ce:56:b1:17:e2:c4:95:
                    88:d2:99:d8:c9:63:74:18:db:1b:a0:36:66:ca:93:
                    0b:d6:5a:10:09:da:ce:a6:0c:84:6a:f1:3a:80:97:
                    c5:d9:58:ed:f5:d5:1c:e6:6d:41:39:7b:17:98:52:
                    6c:5d:a9:66:4e:d0:03:f9:64:d2:b7:48:41:a9:ad:
                    f0:19:b9:dc:f9:91:bc:dd:87:7b:dd:c3:e3:75:9b:
                    01:68:47:94:e8:f7:6d:d4:83:f2:45:c0:d4:df:85:
                    70:cb:67:58:c0:17:0e:1c:16:36:a5:fd:f8:01:c5:
                    8e:e0:77:7d:4d:bf:c1:d1:92:ef:95:11:16:d0:e5:
                    73:d7:6d:19:a7:e5:ea:9b:63:e2:35:2b:33:91:4d:
                    07:bc:17:0d:76:bd:4f:dd:33:33:6d:be:47:f1:f4:
                    ba:9b:69:68:ae:80:14:6c:e2:76:74:65:a8:3f:b0:
                    16:af:91:6e:5f:6b:52:9d:28:ef:77:d5:ab:1c:7c:
                    de:19:3e:2f:d7:1b:90:28:77:26:11:d4:b3:73:a1:
                    8d:69:67:72:3c:c3:c2:23:dd:c6:9e:42:88:e9:8c:
                    77:44:6b:f2:68:cc:9a:66:bb:fc:34:09:63:d0:75:
                    a4:e5:97:0f:f3:b3:90:d5:94:28:5b:3c:89:f7:88:
                    be:39:ba:6e:9f:b3:eb:2b:22:ce:eb:72:7c:e3:5e:
                    1d:a0:6d:21:02:85:73:6b:a3:18:c3:ee:32:81:8d:
                    09:62:f1:74:6d:b7:a7:af:63:5f:72:d6:c2:32:f0:
                    53:90:a2:1a:26:73:fc:64:ee:3a:cd:65:9c:b3:e9:
                    b0:4f:64:b3:68:3f:dc:c3:85:66:fb:4e:06:b1:db:
                    e2:02:1a:9e:9c:1e:96:1f:a6:66:53:3e:ea:62:6b:
                    c1:40:89:0a:08:50:39:d0:8a:d2:f3:9a:36:2e:e3:
                    bc:cf:5a:7f:ae:5b:53:d2:8b:37:a0:37:cb:73:fb:
                    53:9f:79:ad:cc:64:4f:ab:dc:45:69:6d:4b:1b:82:
                    2f:e7:25
                Exponent: 65537 (0x10001)
        X509v3 extensions:
            X509v3 Subject Key Identifier: 
                D0:F6:86:C0:F2:37:27:51:F5:55:D4:A9:1D:C3:0A:D9:25:DB:C4:3E
            X509v3 Authority Key Identifier: 
                keyid:3E:98:BD:9D:78:73:7A:E1:18:B4:06:B0:CB:3B:97:4E:F7:31:1A:30
                DirName:/CN=CA1_sha256_4096_65537_v3_ca
                serial:7B:BF:64:15:79:71:16:7C:9F:B9:F8:04:0C:80:FE:49:3E:B1:BF:AA

            X509v3 Basic Constraints: critical
                CA:TRUE
            X509v3 Key Usage: 
                Certificate Sign
    Signature Algorithm: sha256WithRSAEncryption
         79:cb:22:20:88:67:46:b5:74:5e:75:5e:9e:ff:3a:9a:3f:6c:
         57:71:0b:02:97:e5:d5:2c:a4:26:d9:4c:35:eb:61:02:7c:23:
         cd:49:dd:1c:9f:33:f5:aa:03:10:7d:01:e4:18:9e:0b:f8:f5:
         4a:91:de:53:0b:c0:75:f0:71:ca:b5:7b:ef:c9:8f:e1:2a:dc:
         7a:05:82:5e:5f:51:2d:c8:2e:31:8e:20:13:83:cf:84:26:f8:
         75:f4:bb:71:6e:99:75:ea:ea:92:92:9a:bb:4b:ff:ba:a3:10:
         b3:dc:20:82:98:0a:65:3e:9b:8a:1d:b8:b0:53:17:20:fa:50:
         4b:8b:65:9c:d4:b4:f0:8c:e3:83:13:bf:2c:f1:4a:d7:20:84:
         16:02:31:cb:16:32:5f:cf:68:88:be:08:6f:e2:88:39:ea:5c:
         7a:d3:03:09:11:ce:93:1d:6d:45:53:1c:c1:23:c4:f2:3c:4f:
         d8:30:29:11:7b:e8:6f:d5:68:79:37:f9:39:37:15:9f:65:ef:
         5a:1a:1c:6b:96:d0:63:00:d6:c6:47:b2:12:ea:b5:b3:91:91:
         6e:bc:a7:0c:a3:56:b4:cd:2b:32:49:b1:cf:12:49:70:28:04:
         11:1b:6d:58:cf:d6:ce:0f:82:9a:c8:00:e6:e3:03:48:08:6b:
         87:f8:8b:95:e1:8f:a7:5a:ff:64:9d:bc:37:9f:a2:a6:cd:f1:
         ba:54:de:f9:0d:a3:dc:a8:9e:94:5d:89:f9:f0:91:a9:58:ca:
         e7:4f:61:a7:ae:c6:59:95:78:21:93:d9:1e:35:db:80:43:29:
         f9:81:58:bb:2f:94:b6:5f:96:1a:eb:3c:2f:d4:cb:60:43:47:
         ed:1a:ec:d6:09:4f:12:ee:d6:50:3d:a4:74:46:19:c6:6f:df:
         93:d0:ad:90:89:cb:de:81:fb:65:54:9d:b8:49:1b:e2:4e:98:
         64:7d:a1:41:e6:ad:f3:2f:b2:b7:2d:2b:76:03:22:5a:45:05:
         e3:07:c6:ee:ec:fa:28:26:e7:d7:98:09:5f:17:47:67:84:86:
         70:b8:1e:2e:99:b8:52:60:da:d8:c7:6c:27:a9:2f:cc:e4:19:
         23:33:1d:92:c4:2b:45:8a:03:9b:95:88:c0:31:81:ca:56:97:
         87:7b:07:b9:c9:24:52:a3:bf:6e:2c:1e:ed:43:09:0c:fa:51:
         33:6b:b4:0a:f8:32:3f:b9:2a:c2:f4:38:9c:85:5f:9a:fc:9f:
         27:b5:8d:2d:03:06:92:0b:87:04:c1:be:a6:87:e4:73:b0:c1:
         b4:1f:fb:d3:03:60:74:c8:50:4f:ee:c7:a9:25:9d:87:ec:f9:
         9e:ca:be:c5:21:a8:e9:47
-----BEGIN CERTIFICATE-----
MIIFbzCCA1egAwIBAgIEEjRWezANBgkqhkiG9w0BAQsFADAmMSQwIgYDVQQDFBtD
QTFfc2hhMjU2XzQwOTZfNjU1MzdfdjNfY2EwHhcNMjExMDE5MTcyOTU2WhcNMzEx
MDE3MTcyOTU2WjAnMSUwIwYDVQQDDBxTUksyX3NoYTI1Nl80MDk2XzY1NTM3X3Yz
X2NhMIICIjANBgkqhkiG9w0BAQEFAAOCAg8AMIICCgKCAgEArUKm4AQyXIu4geJw
5bkBP+C0KQWKXRVjIl/6JuM657RPb+HTpkLTeIy0GElBzUL3dy284Heih9zXvdrA
Y1cD7yhe7h+a6GAiwjQSfiyani/wU7jjLBDfJTuNyg4nTUlI89XF4k6wwNgnNkg1
pvDVN5ez85aUjn2wKthNCJ4I485WsRfixJWI0pnYyWN0GNsboDZmypML1loQCdrO
pgyEavE6gJfF2Vjt9dUc5m1BOXsXmFJsXalmTtAD+WTSt0hBqa3wGbnc+ZG83Yd7
3cPjdZsBaEeU6Pdt1IPyRcDU34Vwy2dYwBcOHBY2pf34AcWO4Hd9Tb/B0ZLvlREW
0OVz120Zp+Xqm2PiNSszkU0HvBcNdr1P3TMzbb5H8fS6m2loroAUbOJ2dGWoP7AW
r5FuX2tSnSjvd9WrHHzeGT4v1xuQKHcmEdSzc6GNaWdyPMPCI93GnkKI6Yx3RGvy
aMyaZrv8NAlj0HWk5ZcP87OQ1ZQoWzyJ94i+Obpun7PrKyLO63J8414doG0hAoVz
a6MYw+4ygY0JYvF0bbenr2NfctbCMvBTkKIaJnP8ZO46zWWcs+mwT2SzaD/cw4Vm
+04GsdviAhqenB6WH6ZmUz7qYmvBQIkKCFA50IrS85o2LuO8z1p/rltT0os3oDfL
c/tTn3mtzGRPq9xFaW1LG4Iv5yUCAwEAAaOBozCBoDAdBgNVHQ4EFgQU0PaGwPI3
J1H1VdSpHcMK2SXbxD4wYQYDVR0jBFowWIAUPpi9nXhzeuEYtAawyzuXTvcxGjCh
KqQoMCYxJDAiBgNVBAMUG0NBMV9zaGEyNTZfNDA5Nl82NTUzN192M19jYYIUe79k
FXlxFnyfufgEDID+ST6xv6owDwYDVR0TAQH/BAUwAwEB/zALBgNVHQ8EBAMCAgQw
DQYJKoZIhvcNAQELBQADggIBAHnLIiCIZ0a1dF51Xp7/Opo/bFdxCwKX5dUspCbZ
TDXrYQJ8I81J3RyfM/WqAxB9AeQYngv49UqR3lMLwHXwccq1e+/Jj+Eq3HoFgl5f
US3ILjGOIBODz4Qm+HX0u3FumXXq6pKSmrtL/7qjELPcIIKYCmU+m4oduLBTFyD6
UEuLZZzUtPCM44MTvyzxStcghBYCMcsWMl/PaIi+CG/iiDnqXHrTAwkRzpMdbUVT
HMEjxPI8T9gwKRF76G/VaHk3+Tk3FZ9l71oaHGuW0GMA1sZHshLqtbORkW68pwyj
VrTNKzJJsc8SSXAoBBEbbVjP1s4PgprIAObjA0gIa4f4i5Xhj6da/2SdvDefoqbN
8bpU3vkNo9yonpRdifnwkalYyudPYaeuxlmVeCGT2R4124BDKfmBWLsvlLZflhrr
PC/Uy2BDR+0a7NYJTxLu1lA9pHRGGcZv35PQrZCJy96B+2VUnbhJG+JOmGR9oUHm
rfMvsrctK3YDIlpFBeMHxu7s+igm59eYCV8XR2eEhnC4Hi6ZuFJg2tjHbCepL8zk
GSMzHZLEK0WKA5uViMAxgcpWl4d7B7nJJFKjv24sHu1DCQz6UTNrtAr4Mj+5KsL0
OJyFX5r8nye1jS0DBpILhwTBvqaH5HOwwbQf+9MDYHTIUE/ux6klnYfs+Z7KvsUh
qOlH
-----END CERTIFICATE-----
