Certificate:
    Data:
        Version: 3 (0x2)
        Serial Number: 305419901 (0x1234567d)
        Signature Algorithm: sha256WithRSAEncryption
        Issuer: CN=SRK2_sha256_4096_65537_v3_ca
        Validity
            Not Before: Oct 19 17:29:56 2021 GMT
            Not After : Oct 17 17:29:56 2031 GMT
        Subject: CN=IMG2_1_sha256_4096_65537_v3_usr
        Subject Public Key Info:
            Public Key Algorithm: rsaEncryption
                RSA Public-Key: (4096 bit)
                Modulus:
                    00:a3:e0:dc:14:98:18:9a:c5:49:77:2b:9d:ec:8d:
                    97:66:be:16:e1:77:d7:28:3f:63:f0:dc:54:40:dd:
                    1d:d6:af:bf:88:75:c2:c4:dd:bc:ef:b4:d6:c0:2a:
                    2d:ab:56:b4:10:04:62:b5:88:e4:c5:0f:ee:49:6c:
                    37:c4:92:73:18:53:b9:01:56:06:69:ea:a1:07:e5:
                    b9:28:cf:3a:2b:1d:6d:73:d0:42:a4:dd:e6:79:c2:
                    24:54:dc:8b:22:95:c4:4e:b9:0f:48:41:ce:47:ef:
                    d6:be:e0:42:b4:85:44:c6:02:be:1c:ee:f3:77:06:
                    1f:50:b6:1d:f6:7f:bc:c6:ee:5b:f1:1d:ba:ef:fc:
                    10:e1:30:ce:a6:03:25:34:ee:29:7f:39:aa:33:40:
                    ef:00:cb:2b:8f:2e:51:1e:73:95:73:fd:9c:c2:4c:
                    30:20:43:93:d2:f7:16:b5:d6:d7:d7:d6:6c:f3:e2:
                    f3:d1:19:be:b5:bf:95:a2:e3:23:bb:53:26:99:a1:
                    63:a0:b7:ed:7e:ab:87:01:2e:d1:09:c5:eb:1d:e0:
                    23:68:5b:17:d6:e5:78:f0:ea:6a:ed:c0:f3:58:bb:
                    e0:aa:c7:a5:ec:a7:0b:c2:58:9d:56:7a:8e:a8:d6:
                    ef:fa:a8:1d:fb:da:3a:ae:85:12:50:01:f1:c9:64:
                    9b:40:b1:7d:38:3f:a2:f8:63:cb:2c:3e:2b:19:34:
                    99:bc:a4:07:5e:0e:3d:35:de:2d:e7:ab:86:9b:05:
                    c0:c5:12:dd:dc:15:6d:61:ce:e6:4e:fa:e4:6e:70:
                    b5:41:9b:05:a0:8f:44:31:20:4b:59:aa:7b:f2:c6:
                    22:c1:65:85:b2:88:40:65:a2:6f:47:54:dc:31:2c:
                    c3:ab:9d:59:dd:6a:c3:af:61:46:85:26:da:50:1f:
                    49:d7:b9:7f:f3:a5:21:cc:80:ae:12:99:1f:a4:bc:
                    d6:90:09:0f:00:44:5f:db:41:b1:97:75:88:af:3d:
                    44:3d:de:2a:94:5e:a2:da:36:69:3c:bc:81:a5:f6:
                    86:c6:5b:35:de:4f:14:9a:ed:39:ed:a5:b6:31:05:
                    43:71:68:a9:f8:0e:25:71:5d:3b:01:a0:01:29:6c:
                    51:55:06:00:07:91:dd:c8:01:a6:05:93:2f:02:c8:
                    79:85:34:af:f2:d0:cd:04:9c:fe:06:1e:ea:71:93:
                    95:53:9b:d6:16:32:ae:a5:7d:c0:a3:ee:c7:ae:70:
                    cf:c6:8d:86:ba:b8:2e:6f:78:31:d1:29:9f:5d:42:
                    71:85:2e:c1:67:83:ee:25:1b:de:1f:57:0f:17:d4:
                    db:9a:76:ee:3a:63:8e:bc:35:5d:45:10:8c:18:a4:
                    07:33:bd
                Exponent: 65537 (0x10001)
        X509v3 extensions:
            X509v3 Basic Constraints: 
                CA:FALSE
            Netscape Comment: 
                OpenSSL Generated Certificate
            X509v3 Subject Key Identifier: 
                08:D3:57:F3:C1:14:BE:19:FB:D9:FD:68:DF:5F:F1:7B:9A:87:25:D6
            X509v3 Authority Key Identifier: 
                keyid:D0:F6:86:C0:F2:37:27:51:F5:55:D4:A9:1D:C3:0A:D9:25:DB:C4:3E

    Signature Algorithm: sha256WithRSAEncryption
         27:60:e0:6c:b7:f7:28:65:24:af:de:83:06:73:48:77:18:4a:
         cc:cd:6e:af:1c:50:f4:53:87:0f:b0:a5:21:31:ce:d6:7c:35:
         61:9d:c4:f9:77:86:21:86:dd:b0:b7:04:78:61:75:47:44:2c:
         ff:e2:57:08:d6:c4:ad:25:8f:77:08:cd:bc:51:3a:fe:f7:c5:
         ec:80:06:b3:2b:74:e5:4f:a1:d5:b5:ef:cf:d8:f3:ee:e4:db:
         d2:0a:91:cc:13:fd:24:2e:08:02:42:e4:2a:09:25:77:f6:c7:
         25:54:fa:b3:07:68:98:65:9d:bc:b0:c9:e7:4b:f0:7c:30:a6:
         fc:85:15:0f:af:25:13:75:e4:eb:4c:be:00:50:ba:17:65:c3:
         a6:dc:de:81:2c:ab:0a:03:38:70:1d:f9:98:89:72:ff:14:4c:
         82:15:7e:03:68:2c:af:69:90:fb:01:64:ad:88:47:1d:5e:fa:
         26:6d:3c:d6:7c:81:89:44:56:26:42:95:3b:5f:5f:61:09:36:
         b8:c0:19:9f:c0:67:48:62:b7:c7:22:8a:84:9a:ad:87:46:b3:
         1f:63:11:c8:3c:cf:c6:7d:34:b3:e9:af:d2:62:e7:22:ee:4b:
         3a:b8:e1:7d:9e:96:de:ee:be:47:d5:c4:19:54:bd:be:72:1b:
         cb:ea:c4:c0:38:3c:1f:bb:35:c1:4c:01:fd:8d:b7:8a:ec:c7:
         84:8b:ef:a2:f6:e8:01:78:bf:72:ed:c3:02:4f:df:51:f4:7c:
         6c:d9:23:82:59:db:c4:7e:69:1b:5c:b8:9f:ce:54:d2:56:d1:
         bc:7b:42:f7:43:13:3d:06:eb:a6:db:ee:3d:a4:04:70:86:ba:
         e8:38:77:60:f3:2e:6f:fb:32:d1:9d:35:7c:5b:73:5c:b4:73:
         08:9d:c5:ba:c2:4b:f7:a8:49:14:53:a9:1c:82:97:e3:7c:56:
         89:aa:40:a3:66:d9:c8:1a:0e:f7:e8:bc:a2:38:76:03:c2:cb:
         15:68:f2:80:be:a3:2a:bf:84:5d:ff:71:41:e9:94:92:a6:82:
         d3:a2:4e:ce:e0:dd:a0:82:7e:bc:07:84:3f:20:66:49:a9:a2:
         23:af:45:41:5c:58:77:09:c7:d8:06:b5:91:99:0c:57:8a:26:
         f9:13:ca:ef:5f:fe:40:10:f4:64:c3:01:d7:a4:23:48:26:11:
         e3:8a:1d:01:9c:65:48:93:12:55:0d:1d:f5:ac:e5:c5:0e:bd:
         d6:5b:22:da:9d:22:9f:c2:f0:b3:e6:a8:31:b0:32:62:3d:07:
         58:82:5e:c9:60:63:7e:99:f6:18:dd:c9:3c:29:2d:37:68:16:
         ec:4b:1f:12:14:21:38:61
-----BEGIN CERTIFICATE-----
MIIFSjCCAzKgAwIBAgIEEjRWfTANBgkqhkiG9w0BAQsFADAnMSUwIwYDVQQDDBxT
UksyX3NoYTI1Nl80MDk2XzY1NTM3X3YzX2NhMB4XDTIxMTAxOTE3Mjk1NloXDTMx
MTAxNzE3Mjk1NlowKjEoMCYGA1UEAwwfSU1HMl8xX3NoYTI1Nl80MDk2XzY1NTM3
X3YzX3VzcjCCAiIwDQYJKoZIhvcNAQEBBQADggIPADCCAgoCggIBAKPg3BSYGJrF
SXcrneyNl2a+FuF31yg/Y/DcVEDdHdavv4h1wsTdvO+01sAqLatWtBAEYrWI5MUP
7klsN8SScxhTuQFWBmnqoQfluSjPOisdbXPQQqTd5nnCJFTciyKVxE65D0hBzkfv
1r7gQrSFRMYCvhzu83cGH1C2HfZ/vMbuW/Eduu/8EOEwzqYDJTTuKX85qjNA7wDL
K48uUR5zlXP9nMJMMCBDk9L3FrXW19fWbPPi89EZvrW/laLjI7tTJpmhY6C37X6r
hwEu0QnF6x3gI2hbF9blePDqau3A81i74KrHpeynC8JYnVZ6jqjW7/qoHfvaOq6F
ElAB8clkm0CxfTg/ovhjyyw+Kxk0mbykB14OPTXeLeerhpsFwMUS3dwVbWHO5k76
5G5wtUGbBaCPRDEgS1mqe/LGIsFlhbKIQGWib0dU3DEsw6udWd1qw69hRoUm2lAf
Sde5f/OlIcyArhKZH6S81pAJDwBEX9tBsZd1iK89RD3eKpReoto2aTy8gaX2hsZb
Nd5PFJrtOe2ltjEFQ3FoqfgOJXFdOwGgASlsUVUGAAeR3cgBpgWTLwLIeYU0r/LQ
zQSc/gYe6nGTlVOb1hYyrqV9wKPux65wz8aNhrq4Lm94MdEpn11CcYUuwWeD7iUb
3h9XDxfU25p27jpjjrw1XUUQjBikBzO9AgMBAAGjezB5MAkGA1UdEwQCMAAwLAYJ
YIZIAYb4QgENBB8WHU9wZW5TU0wgR2VuZXJhdGVkIENlcnRpZmljYXRlMB0GA1Ud
DgQWBBQI01fzwRS+GfvZ/WjfX/F7mocl1jAfBgNVHSMEGDAWgBTQ9obA8jcnUfVV
1KkdwwrZJdvEPjANBgkqhkiG9w0BAQsFAAOCAgEAJ2DgbLf3KGUkr96DBnNIdxhK
zM1urxxQ9FOHD7ClITHO1nw1YZ3E+XeGIYbdsLcEeGF1R0Qs/+JXCNbErSWPdwjN
vFE6/vfF7IAGsyt05U+h1bXvz9jz7uTb0gqRzBP9JC4IAkLkKgkld/bHJVT6swdo
mGWdvLDJ50vwfDCm/IUVD68lE3Xk60y+AFC6F2XDptzegSyrCgM4cB35mIly/xRM
ghV+A2gsr2mQ+wFkrYhHHV76Jm081nyBiURWJkKVO19fYQk2uMAZn8BnSGK3xyKK
hJqth0azH2MRyDzPxn00s+mv0mLnIu5LOrjhfZ6W3u6+R9XEGVS9vnIby+rEwDg8
H7s1wUwB/Y23iuzHhIvvovboAXi/cu3DAk/fUfR8bNkjglnbxH5pG1y4n85U0lbR
vHtC90MTPQbrptvuPaQEcIa66Dh3YPMub/sy0Z01fFtzXLRzCJ3FusJL96hJFFOp
HIKX43xWiapAo2bZyBoO9+i8ojh2A8LLFWjygL6jKr+EXf9xQemUkqaC06JOzuDd
oIJ+vAeEPyBmSamiI69FQVxYdwnH2Aa1kZkMV4om+RPK71/+QBD0ZMMB16QjSCYR
44odAZxlSJMSVQ0d9azlxQ691lsi2p0in8Lws+aoMbAyYj0HWIJeyWBjfpn2GN3J
PCktN2gW7EsfEhQhOGE=
-----END CERTIFICATE-----
