Certificate:
    Data:
        Version: 3 (0x2)
        Serial Number: 305419907 (0x12345683)
        Signature Algorithm: sha256WithRSAEncryption
        Issuer: CN=SRK4_sha256_4096_65537_v3_ca
        Validity
            Not Before: Oct 19 17:30:01 2021 GMT
            Not After : Oct 17 17:30:01 2031 GMT
        Subject: CN=IMG4_1_sha256_4096_65537_v3_usr
        Subject Public Key Info:
            Public Key Algorithm: rsaEncryption
                RSA Public-Key: (4096 bit)
                Modulus:
                    00:ba:f3:38:4c:76:9d:09:af:c8:83:92:be:c8:72:
                    4c:aa:3f:18:05:fd:55:02:a1:eb:65:8d:c9:75:42:
                    b3:60:de:12:d9:e6:45:0e:48:2f:79:ea:48:18:7a:
                    37:6d:44:97:1a:00:50:90:3b:1d:3a:9e:e3:65:67:
                    fc:56:31:1e:60:2a:51:2d:4b:35:ae:2c:c4:ed:a8:
                    6d:e3:52:5e:b8:08:48:cd:c6:8c:b0:a9:d6:2e:a9:
                    bf:3e:ef:69:34:6a:2e:12:fa:c0:31:fa:48:46:a3:
                    b4:d6:5b:09:90:cf:9a:30:96:93:af:7c:de:d6:90:
                    52:18:dc:99:57:51:41:2a:b8:58:3b:19:64:28:84:
                    32:86:3e:61:85:78:f9:41:c8:07:fb:e3:e0:4d:8b:
                    df:d5:85:9f:60:b4:5f:c6:00:28:03:91:dd:e9:85:
                    5d:02:f2:f5:63:c5:5a:fe:81:1e:71:5a:63:ee:d5:
                    3f:64:6a:49:60:c5:32:45:3c:a0:b3:d5:ed:e4:4e:
                    8a:30:0b:75:df:68:8e:57:8d:fb:d6:d3:22:39:7e:
                    ea:56:7f:9e:cd:fb:b3:bc:1e:03:e6:87:a8:23:8d:
                    72:c5:5b:e5:81:91:ca:c3:f8:d9:75:a5:30:66:27:
                    c4:14:d2:65:4b:1d:0f:10:01:91:0c:b5:a7:fa:e3:
                    3e:0c:2e:b0:3b:86:43:25:dc:f2:e6:c0:15:1c:40:
                    fc:f1:b2:a5:1f:20:75:8b:cd:3f:61:a1:27:29:f4:
                    a9:aa:ae:5d:83:90:dd:3a:de:e0:01:1f:42:ac:e2:
                    2d:31:35:da:c0:88:58:d0:fa:8b:ca:a7:e5:4a:06:
                    43:65:07:ff:bf:54:b6:28:de:00:b6:63:bd:16:a4:
                    91:08:15:8d:c9:8a:54:82:78:f4:05:6b:6f:64:82:
                    da:16:2d:e4:0c:0f:1c:8d:c7:ce:5d:81:d2:06:88:
                    42:f8:58:0b:15:54:d9:d7:74:96:3d:54:2f:3c:e9:
                    c3:58:9e:7b:31:23:54:39:d7:6a:fd:d6:21:06:32:
                    1d:5e:05:51:51:66:1b:aa:2c:6c:9e:ce:6a:70:fd:
                    53:d1:54:2e:13:ba:1c:7b:db:18:f5:c2:fe:06:75:
                    7d:8e:77:35:c9:69:d5:2e:90:f4:ab:ca:66:b1:ce:
                    e3:fc:03:dc:10:00:68:dd:a3:a0:75:ad:e8:96:22:
                    b6:96:cd:c6:d7:79:36:f8:5f:55:df:d7:14:85:14:
                    3e:62:11:47:26:7b:f6:b1:53:2f:b8:52:17:b8:c9:
                    96:ae:0f:39:6f:71:09:1b:b7:19:70:b6:08:18:71:
                    b9:df:d4:9e:06:33:e3:63:f8:51:60:6c:27:22:22:
                    27:b3:9f
                Exponent: 65537 (0x10001)
        X509v3 extensions:
            X509v3 Basic Constraints: 
                CA:FALSE
            Netscape Comment: 
                OpenSSL Generated Certificate
            X509v3 Subject Key Identifier: 
                97:34:96:DE:EB:A9:8C:D6:F9:39:87:79:18:CB:7C:CC:0F:81:6D:B5
            X509v3 Authority Key Identifier: 
                keyid:6F:1C:C3:B0:0B:5A:44:E2:F3:70:D5:87:B4:0C:5A:4B:3C:0A:74:3E

    Signature Algorithm: sha256WithRSAEncryption
         72:78:3c:9c:ab:2a:1d:d5:dc:4b:71:d2:0a:27:b7:8d:64:eb:
         bd:4c:22:64:7d:2f:ae:00:21:4a:09:c5:2e:f0:e2:34:42:05:
         ad:1d:9b:12:22:b6:69:d0:11:c7:e1:c0:e8:f3:69:d0:4d:83:
         c2:2a:34:f5:b1:d8:86:6f:41:61:36:37:67:7a:31:86:15:ef:
         45:e4:25:8f:a7:75:1e:1a:3d:d5:53:04:4f:cb:21:1e:b0:16:
         54:09:3c:07:80:58:a2:bb:43:1d:af:45:66:c9:89:a1:7c:27:
         c2:67:91:c2:78:85:1e:ce:d4:c1:55:30:00:d0:cb:b1:1c:32:
         66:06:f1:d8:f7:86:1c:9f:48:48:d0:b0:2d:5c:3b:89:68:b5:
         c3:ca:c6:29:fe:21:d8:81:be:6f:25:c8:73:5e:04:52:9b:84:
         a8:cd:07:2e:94:36:58:8d:7f:97:3f:eb:da:45:7b:36:76:da:
         13:21:b8:e5:c8:a9:b4:b1:90:d0:62:80:11:92:4b:18:47:3c:
         1d:cd:d1:b3:cf:49:08:08:b0:9d:8c:79:5a:39:a3:af:43:d2:
         8e:f3:ca:78:21:fa:be:05:a2:89:62:c9:42:4e:4d:50:20:7e:
         3d:57:2a:88:87:04:9a:b9:2c:59:cb:d0:43:a1:46:34:f1:f9:
         4d:13:cd:90:92:0e:44:dc:30:ac:62:d6:32:51:dc:1e:36:b4:
         b7:9a:70:89:36:04:74:2b:7b:4c:df:d1:2a:c6:01:cb:6a:83:
         bd:f4:ca:04:11:1b:78:5a:0c:49:17:27:71:4b:a0:d6:d0:18:
         0f:03:62:d1:13:b8:1d:8d:c2:85:4f:ff:46:8a:f6:f6:bf:e5:
         9f:dd:67:e1:70:49:27:ed:96:78:4b:ae:15:3a:c5:e2:60:18:
         76:4c:f9:69:82:69:cb:db:fc:85:27:b7:d9:99:1b:54:8b:d1:
         bb:db:32:58:f9:67:a0:8a:d1:24:a5:20:fe:fc:fc:52:4f:b8:
         dd:e7:6a:e8:d9:c6:2b:62:16:6c:da:15:07:88:5c:93:72:e5:
         e1:60:a1:86:52:2a:fd:be:3d:05:6f:d3:24:2f:c2:c3:c1:d8:
         c9:8e:73:ce:c3:9a:b1:d6:93:1f:71:57:cb:b7:f1:84:ec:31:
         86:97:79:29:0c:ed:d4:44:df:c9:43:7e:21:29:92:c4:68:52:
         95:26:62:54:cd:4f:48:38:62:a4:e9:e0:43:6e:6a:e5:8c:58:
         7e:26:04:42:96:8c:22:14:ef:94:dc:49:2d:c4:ca:4d:1c:7c:
         64:5b:7c:df:7e:12:67:e7:04:3c:f6:9a:0c:95:ae:b5:67:b1:
         c9:39:2b:bd:6d:b3:27:2a
-----BEGIN CERTIFICATE-----
MIIFSjCCAzKgAwIBAgIEEjRWgzANBgkqhkiG9w0BAQsFADAnMSUwIwYDVQQDDBxT
Uks0X3NoYTI1Nl80MDk2XzY1NTM3X3YzX2NhMB4XDTIxMTAxOTE3MzAwMVoXDTMx
MTAxNzE3MzAwMVowKjEoMCYGA1UEAwwfSU1HNF8xX3NoYTI1Nl80MDk2XzY1NTM3
X3YzX3VzcjCCAiIwDQYJKoZIhvcNAQEBBQADggIPADCCAgoCggIBALrzOEx2nQmv
yIOSvshyTKo/GAX9VQKh62WNyXVCs2DeEtnmRQ5IL3nqSBh6N21ElxoAUJA7HTqe
42Vn/FYxHmAqUS1LNa4sxO2obeNSXrgISM3GjLCp1i6pvz7vaTRqLhL6wDH6SEaj
tNZbCZDPmjCWk6983taQUhjcmVdRQSq4WDsZZCiEMoY+YYV4+UHIB/vj4E2L39WF
n2C0X8YAKAOR3emFXQLy9WPFWv6BHnFaY+7VP2RqSWDFMkU8oLPV7eROijALdd9o
jleN+9bTIjl+6lZ/ns37s7weA+aHqCONcsVb5YGRysP42XWlMGYnxBTSZUsdDxAB
kQy1p/rjPgwusDuGQyXc8ubAFRxA/PGypR8gdYvNP2GhJyn0qaquXYOQ3Tre4AEf
QqziLTE12sCIWND6i8qn5UoGQ2UH/79UtijeALZjvRakkQgVjcmKVIJ49AVrb2SC
2hYt5AwPHI3Hzl2B0gaIQvhYCxVU2dd0lj1ULzzpw1ieezEjVDnXav3WIQYyHV4F
UVFmG6osbJ7OanD9U9FULhO6HHvbGPXC/gZ1fY53Nclp1S6Q9KvKZrHO4/wD3BAA
aN2joHWt6JYitpbNxtd5NvhfVd/XFIUUPmIRRyZ79rFTL7hSF7jJlq4POW9xCRu3
GXC2CBhxud/UngYz42P4UWBsJyIiJ7OfAgMBAAGjezB5MAkGA1UdEwQCMAAwLAYJ
YIZIAYb4QgENBB8WHU9wZW5TU0wgR2VuZXJhdGVkIENlcnRpZmljYXRlMB0GA1Ud
DgQWBBSXNJbe66mM1vk5h3kYy3zMD4FttTAfBgNVHSMEGDAWgBRvHMOwC1pE4vNw
1Ye0DFpLPAp0PjANBgkqhkiG9w0BAQsFAAOCAgEAcng8nKsqHdXcS3HSCie3jWTr
vUwiZH0vrgAhSgnFLvDiNEIFrR2bEiK2adARx+HA6PNp0E2Dwio09bHYhm9BYTY3
Z3oxhhXvReQlj6d1Hho91VMET8shHrAWVAk8B4BYortDHa9FZsmJoXwnwmeRwniF
Hs7UwVUwANDLsRwyZgbx2PeGHJ9ISNCwLVw7iWi1w8rGKf4h2IG+byXIc14EUpuE
qM0HLpQ2WI1/lz/r2kV7NnbaEyG45ciptLGQ0GKAEZJLGEc8Hc3Rs89JCAiwnYx5
Wjmjr0PSjvPKeCH6vgWiiWLJQk5NUCB+PVcqiIcEmrksWcvQQ6FGNPH5TRPNkJIO
RNwwrGLWMlHcHja0t5pwiTYEdCt7TN/RKsYBy2qDvfTKBBEbeFoMSRcncUug1tAY
DwNi0RO4HY3ChU//Ror29r/ln91n4XBJJ+2WeEuuFTrF4mAYdkz5aYJpy9v8hSe3
2ZkbVIvRu9syWPlnoIrRJKUg/vz8Uk+43edq6NnGK2IWbNoVB4hck3Ll4WChhlIq
/b49BW/TJC/Cw8HYyY5zzsOasdaTH3FXy7fxhOwxhpd5KQzt1ETfyUN+ISmSxGhS
lSZiVM1PSDhipOngQ25q5YxYfiYEQpaMIhTvlNxJLcTKTRx8ZFt8334SZ+cEPPaa
DJWutWexyTkrvW2zJyo=
-----END CERTIFICATE-----
