Certificate:
    Data:
        Version: 3 (0x2)
        Serial Number: 305419905 (0x12345681)
        Signature Algorithm: sha256WithRSAEncryption
        Issuer: CN=CA1_sha256_4096_65537_v3_ca
        Validity
            Not Before: Oct 19 17:29:59 2021 GMT
            Not After : Oct 17 17:29:59 2031 GMT
        Subject: CN=SRK4_sha256_4096_65537_v3_ca
        Subject Public Key Info:
            Public Key Algorithm: rsaEncryption
                RSA Public-Key: (4096 bit)
                Modulus:
                    00:a9:4d:b8:8b:39:b6:aa:08:c0:7f:d4:00:eb:81:
                    e2:e0:52:10:fb:81:ae:16:85:53:cb:f5:f6:63:36:
                    87:85:0c:25:2d:50:78:8c:c3:36:d2:7b:5f:ce:c7:
                    b1:33:79:e0:d8:0f:f2:b6:23:ef:33:54:ba:ea:04:
                    88:cc:8b:e0:67:5f:d2:ed:fd:38:b2:60:53:f7:83:
                    09:cd:89:0c:8b:e3:91:2a:0d:2f:e3:f9:a2:a6:78:
                    ea:9c:42:07:05:e9:17:6c:2f:e0:4e:23:21:e7:d0:
                    89:dc:1e:b8:e8:19:0d:7e:35:81:cf:37:ca:27:a6:
                    b0:c6:ae:7c:46:6d:b6:fe:f3:a3:e3:c5:2b:18:f2:
                    18:88:3a:c0:f7:93:84:f0:40:3c:cf:d0:fa:69:9c:
                    b6:42:0a:d5:e2:cc:05:6c:07:54:65:ca:da:23:73:
                    25:2a:1a:3f:92:18:88:40:56:29:95:0d:ca:b5:c7:
                    b9:03:95:b4:93:d8:d5:e7:24:50:31:86:7a:18:70:
                    c9:f3:4e:7d:cf:f5:09:9f:1d:c0:c9:4c:a2:4e:54:
                    17:d3:fc:0d:60:17:d6:df:4e:6f:69:40:e0:2b:74:
                    86:90:35:8d:cb:a4:c5:b0:98:e7:87:a9:59:f2:c5:
                    af:9b:55:8e:a4:20:8e:43:59:32:7f:1c:75:91:79:
                    63:28:d1:ab:02:46:31:08:48:4e:03:49:6d:65:96:
                    89:80:80:72:16:34:af:1d:80:1e:c4:2e:1e:61:db:
                    28:11:44:2b:22:e7:c8:b6:3d:32:97:2c:75:17:63:
                    38:a7:34:7e:23:5d:d8:fd:da:2b:57:f4:5d:35:9d:
                    5c:ce:a1:8c:48:65:94:53:85:ad:a6:c8:45:12:6a:
                    47:97:60:d7:cf:c4:06:f8:cf:b8:98:fa:de:98:d8:
                    7f:a6:b8:a8:ea:ce:58:1b:4d:0d:02:b4:a8:ba:a9:
                    43:23:6f:87:6a:68:93:5c:46:29:74:ed:13:c9:a1:
                    ef:07:ce:ff:22:c4:40:8f:2f:e9:7f:ab:53:33:2b:
                    e9:30:bc:58:ff:28:ff:8b:3e:38:26:47:b2:39:e9:
                    e4:58:1c:64:2f:f5:c5:33:ad:d6:0e:65:6c:14:43:
                    71:57:39:42:3f:1c:70:8a:40:6c:a3:88:b3:ff:9a:
                    6a:be:b6:a1:3c:7d:dd:c1:b5:e5:8f:8a:00:9f:6f:
                    24:39:8f:c8:2e:17:72:2f:9b:ff:20:36:27:2c:b1:
                    b1:c1:ef:69:a8:53:bf:50:ec:36:fe:9a:2b:aa:25:
                    6e:a7:fd:c3:ad:b6:5c:84:70:19:98:6a:47:55:8c:
                    0c:13:64:0f:1e:3d:47:dd:be:e2:bf:12:29:a3:a5:
                    95:b2:03
                Exponent: 65537 (0x10001)
        X509v3 extensions:
            X509v3 Subject Key Identifier: 
                6F:1C:C3:B0:0B:5A:44:E2:F3:70:D5:87:B4:0C:5A:4B:3C:0A:74:3E
            X509v3 Authority Key Identifier: 
                keyid:3E:98:BD:9D:78:73:7A:E1:18:B4:06:B0:CB:3B:97:4E:F7:31:1A:30
                DirName:/CN=CA1_sha256_4096_65537_v3_ca
                serial:7B:BF:64:15:79:71:16:7C:9F:B9:F8:04:0C:80:FE:49:3E:B1:BF:AA

            X509v3 Basic Constraints: critical
                CA:TRUE
            X509v3 Key Usage: 
                Certificate Sign
    Signature Algorithm: sha256WithRSAEncryption
         bc:38:6b:3d:a2:b4:8f:a3:8b:3e:46:6e:d4:71:f3:00:ef:bf:
         00:ad:d4:5f:24:f6:c9:33:ba:7e:3a:78:97:85:05:6f:93:bb:
         28:b5:64:18:b1:26:40:c1:f0:01:ad:5f:08:bb:54:26:55:4d:
         24:eb:f2:06:d7:11:2d:5a:37:73:e3:bc:87:51:88:9a:46:ff:
         1a:8f:0f:cd:31:b3:7c:c8:d6:a1:70:11:bc:70:e2:47:9a:4e:
         c2:9b:dd:bc:77:d3:af:d8:fa:86:9b:91:15:44:b5:50:5d:e0:
         f6:66:d8:3f:6e:3e:a3:e9:ca:3e:3f:df:af:59:f0:69:e3:03:
         3b:15:f7:38:40:86:a1:df:36:cd:bc:61:a5:20:20:8f:e6:bc:
         3b:b2:07:73:32:db:d6:1c:7b:6f:04:e9:d8:9e:1d:86:1a:4b:
         fd:0a:a8:14:3f:23:1d:ba:18:a6:97:3f:08:6a:53:2d:a3:6c:
         74:c1:9f:6b:3b:12:9b:96:39:f1:dd:24:7a:11:e5:92:56:45:
         4c:74:64:cf:3c:7d:95:e1:56:8e:61:61:42:a7:74:99:3e:96:
         ce:73:47:bb:b0:9b:82:22:10:f5:6e:43:57:44:f7:b8:d7:0b:
         62:aa:58:02:fb:3b:dd:11:cc:73:5e:32:9a:34:88:d0:ec:f3:
         ff:60:fe:c5:51:91:99:4f:25:11:50:56:7d:fd:e1:e2:4a:6a:
         4d:4a:8d:9d:61:b1:00:d1:d1:80:bf:dd:96:c4:de:d2:c7:95:
         9e:41:c6:9d:51:49:e8:0e:30:40:7d:b2:e4:32:d2:4f:bc:c1:
         1f:2c:51:46:24:a9:26:ba:de:cb:ad:c7:cb:2f:17:ca:1e:a0:
         dc:88:1c:1a:ac:b2:5f:04:7c:de:c9:21:d7:7e:a8:d5:ff:ec:
         81:1d:a6:95:fb:e6:57:f8:64:0f:47:9d:dc:b4:24:09:75:81:
         39:ee:42:be:15:d9:de:02:66:57:95:f7:db:6f:9b:27:e1:54:
         cc:c0:74:87:f4:a5:3f:ad:f6:19:46:25:ba:4e:f4:ca:55:c7:
         07:dd:cb:f5:2d:b0:47:fd:23:60:2e:2c:c9:01:e5:c0:13:eb:
         68:0e:07:95:cd:7c:d6:60:82:72:fb:eb:e0:af:f4:d5:be:0f:
         b7:bd:5d:5e:28:a2:f1:71:29:c1:9e:9b:51:c0:a3:52:85:7a:
         a8:ff:c2:08:97:21:5f:0c:72:bb:46:2f:60:ce:75:90:d3:d9:
         49:17:6a:39:45:50:10:68:b9:05:ff:1b:39:7e:c3:0c:6b:25:
         a1:fe:18:44:b3:e0:a8:6a:b8:a6:21:1c:ec:cb:7f:cd:ec:dd:
         ec:59:f6:9b:b0:e0:23:95
-----BEGIN CERTIFICATE-----
MIIFbzCCA1egAwIBAgIEEjRWgTANBgkqhkiG9w0BAQsFADAmMSQwIgYDVQQDFBtD
QTFfc2hhMjU2XzQwOTZfNjU1MzdfdjNfY2EwHhcNMjExMDE5MTcyOTU5WhcNMzEx
MDE3MTcyOTU5WjAnMSUwIwYDVQQDDBxTUks0X3NoYTI1Nl80MDk2XzY1NTM3X3Yz
X2NhMIICIjANBgkqhkiG9w0BAQEFAAOCAg8AMIICCgKCAgEAqU24izm2qgjAf9QA
64Hi4FIQ+4GuFoVTy/X2YzaHhQwlLVB4jMM20ntfzsexM3ng2A/ytiPvM1S66gSI
zIvgZ1/S7f04smBT94MJzYkMi+ORKg0v4/mipnjqnEIHBekXbC/gTiMh59CJ3B64
6BkNfjWBzzfKJ6awxq58Rm22/vOj48UrGPIYiDrA95OE8EA8z9D6aZy2QgrV4swF
bAdUZcraI3MlKho/khiIQFYplQ3Ktce5A5W0k9jV5yRQMYZ6GHDJ8059z/UJnx3A
yUyiTlQX0/wNYBfW305vaUDgK3SGkDWNy6TFsJjnh6lZ8sWvm1WOpCCOQ1kyfxx1
kXljKNGrAkYxCEhOA0ltZZaJgIByFjSvHYAexC4eYdsoEUQrIufItj0ylyx1F2M4
pzR+I13Y/dorV/RdNZ1czqGMSGWUU4WtpshFEmpHl2DXz8QG+M+4mPremNh/prio
6s5YG00NArSouqlDI2+HamiTXEYpdO0TyaHvB87/IsRAjy/pf6tTMyvpMLxY/yj/
iz44JkeyOenkWBxkL/XFM63WDmVsFENxVzlCPxxwikBso4iz/5pqvrahPH3dwbXl
j4oAn28kOY/ILhdyL5v/IDYnLLGxwe9pqFO/UOw2/porqiVup/3DrbZchHAZmGpH
VYwME2QPHj1H3b7ivxIpo6WVsgMCAwEAAaOBozCBoDAdBgNVHQ4EFgQUbxzDsAta
ROLzcNWHtAxaSzwKdD4wYQYDVR0jBFowWIAUPpi9nXhzeuEYtAawyzuXTvcxGjCh
KqQoMCYxJDAiBgNVBAMUG0NBMV9zaGEyNTZfNDA5Nl82NTUzN192M19jYYIUe79k
FXlxFnyfufgEDID+ST6xv6owDwYDVR0TAQH/BAUwAwEB/zALBgNVHQ8EBAMCAgQw
DQYJKoZIhvcNAQELBQADggIBALw4az2itI+jiz5GbtRx8wDvvwCt1F8k9skzun46
eJeFBW+Tuyi1ZBixJkDB8AGtXwi7VCZVTSTr8gbXES1aN3PjvIdRiJpG/xqPD80x
s3zI1qFwEbxw4keaTsKb3bx306/Y+oabkRVEtVBd4PZm2D9uPqPpyj4/369Z8Gnj
AzsV9zhAhqHfNs28YaUgII/mvDuyB3My29Yce28E6dieHYYaS/0KqBQ/Ix26GKaX
PwhqUy2jbHTBn2s7EpuWOfHdJHoR5ZJWRUx0ZM88fZXhVo5hYUKndJk+ls5zR7uw
m4IiEPVuQ1dE97jXC2KqWAL7O90RzHNeMpo0iNDs8/9g/sVRkZlPJRFQVn394eJK
ak1KjZ1hsQDR0YC/3ZbE3tLHlZ5Bxp1RSegOMEB9suQy0k+8wR8sUUYkqSa63sut
x8svF8oeoNyIHBqssl8EfN7JIdd+qNX/7IEdppX75lf4ZA9Hndy0JAl1gTnuQr4V
2d4CZleV99tvmyfhVMzAdIf0pT+t9hlGJbpO9MpVxwfdy/UtsEf9I2AuLMkB5cAT
62gOB5XNfNZggnL76+Cv9NW+D7e9XV4oovFxKcGem1HAo1KFeqj/wgiXIV8McrtG
L2DOdZDT2UkXajlFUBBouQX/Gzl+wwxrJaH+GESz4KhquKYhHOzLf83s3exZ9puw
4COV
-----END CERTIFICATE-----
