Certificate:
    Data:
        Version: 3 (0x2)
        Serial Number: 305419898 (0x1234567a)
        Signature Algorithm: sha256WithRSAEncryption
        Issuer: CN=SRK1_sha256_4096_65537_v3_ca
        Validity
            Not Before: Oct 19 17:29:55 2021 GMT
            Not After : Oct 17 17:29:55 2031 GMT
        Subject: CN=IMG1_1_sha256_4096_65537_v3_usr
        Subject Public Key Info:
            Public Key Algorithm: rsaEncryption
                RSA Public-Key: (4096 bit)
                Modulus:
                    00:c2:ab:be:3f:12:be:55:0f:8a:49:14:76:17:fb:
                    5d:78:e8:dd:82:00:32:05:e0:7e:56:0b:46:f5:b9:
                    59:64:ee:1f:16:70:38:87:f3:02:e6:a1:7b:2a:fe:
                    5f:73:f5:bd:ba:25:9e:ce:91:70:5f:23:00:c5:ca:
                    e9:5b:9f:09:7e:e1:d6:69:ec:8d:ef:43:7c:eb:32:
                    2c:85:1e:f5:d5:4f:3f:60:31:95:49:6f:55:90:0e:
                    87:90:53:23:ae:5d:12:e2:c1:93:46:c7:2d:a4:ee:
                    21:69:8b:0e:26:8d:d6:57:31:f8:cf:08:cf:12:ba:
                    c3:64:3f:45:55:72:19:7b:80:f9:ba:b1:d1:1a:4d:
                    32:44:5e:73:50:03:d2:d9:07:82:43:60:0f:a4:4e:
                    98:e4:65:2a:8e:f5:63:22:b5:33:72:79:ab:00:28:
                    85:50:d5:65:89:0b:d3:68:0c:e3:13:9c:93:86:44:
                    8c:17:94:80:b7:2b:aa:1d:c7:d2:ed:fb:5e:11:ec:
                    58:57:99:e4:af:a6:7c:49:38:e7:8f:99:50:86:09:
                    28:89:a4:5c:25:80:38:31:23:6d:25:7f:49:6c:c4:
                    95:4e:43:0e:e8:93:3f:ce:bf:b6:b1:9a:2e:89:ef:
                    51:90:8f:95:e1:ad:b2:30:50:99:b4:9c:b9:3a:11:
                    15:3b:bf:de:f9:e5:ae:15:99:2f:39:6a:50:11:a3:
                    cc:60:dd:f1:a7:f4:97:a2:86:f2:33:ed:99:51:68:
                    52:a8:64:45:dc:71:e3:09:8f:39:03:40:63:13:c2:
                    ff:26:19:7f:e7:8e:bd:39:0f:6e:d6:5d:01:b0:35:
                    e3:fe:d0:f9:b4:e7:d1:e8:d2:14:fd:0c:4b:28:f7:
                    5d:c6:0f:30:68:c2:dd:af:ce:68:db:57:bd:af:c8:
                    d6:af:34:47:88:8e:79:ba:49:52:37:bc:7a:60:52:
                    95:f0:c5:89:fd:f2:ac:db:85:4f:d7:91:59:24:25:
                    90:b1:0d:7e:ab:0d:b8:5c:ee:90:cc:4d:e2:9c:0b:
                    6c:82:c7:71:32:36:35:6e:d9:2f:89:30:e1:91:08:
                    2d:bc:93:66:f7:bc:52:8c:82:51:ff:63:5f:ce:8e:
                    cf:91:39:88:2d:75:1b:0f:98:03:82:f6:94:8a:ac:
                    40:b8:57:14:f7:f5:8e:10:f3:a2:66:38:ac:3f:d3:
                    41:97:72:c8:26:bc:7f:32:3f:68:09:80:7f:95:12:
                    cc:9a:81:5d:7f:14:6c:a9:17:b9:e9:4f:29:38:00:
                    85:73:a1:33:0f:83:2f:2a:b5:c9:d7:91:64:29:f0:
                    f2:54:b8:2f:91:2d:5b:04:0f:e9:18:9f:01:77:aa:
                    00:18:9f
                Exponent: 65537 (0x10001)
        X509v3 extensions:
            X509v3 Basic Constraints: 
                CA:FALSE
            Netscape Comment: 
                OpenSSL Generated Certificate
            X509v3 Subject Key Identifier: 
                C2:14:2C:64:0B:E0:47:26:5F:E9:60:3B:77:F2:9F:59:DD:50:03:0E
            X509v3 Authority Key Identifier: 
                keyid:CA:15:A4:98:80:FE:B5:52:1E:D5:3E:C0:36:C3:69:20:72:2D:73:32

    Signature Algorithm: sha256WithRSAEncryption
         10:6b:17:0a:80:7d:8f:d0:36:d0:2f:14:dd:c8:7e:88:20:ca:
         13:e8:7b:38:41:0e:d0:5e:35:f1:68:a9:e6:87:a3:48:72:32:
         91:b6:f5:0c:42:da:3c:06:08:70:7c:7b:7a:c7:a9:20:fa:da:
         49:74:4b:85:ae:65:51:c1:aa:01:d4:f6:08:49:71:5f:21:ad:
         a1:bd:4f:c7:76:11:a2:f4:06:8e:86:9e:7c:28:e4:d9:3b:08:
         dc:3f:52:19:83:fb:20:3e:7e:a4:b6:0c:ef:b2:44:20:5d:0c:
         41:15:4b:18:c0:9a:64:9d:17:43:bb:f2:08:a3:f5:7d:a5:50:
         77:38:44:06:5a:4a:5d:08:4d:c4:7d:d2:fb:fd:5c:b3:85:d3:
         81:81:79:c1:c7:d5:15:b6:f9:2b:aa:1a:80:91:aa:28:1b:b6:
         68:a1:5f:db:7c:eb:1f:03:97:c8:c1:a9:b5:97:59:2d:93:ed:
         9c:48:de:e0:9c:91:db:38:87:28:ba:d8:cb:92:52:a7:bc:07:
         cf:f4:f9:e5:10:73:54:3f:29:50:34:76:e6:76:ab:ab:5e:4b:
         c0:68:67:17:b4:3b:e7:21:57:bd:f9:60:08:83:5d:4c:81:d3:
         89:a5:8a:f6:ac:09:00:0b:dd:74:6a:30:b0:25:10:4c:70:bb:
         18:65:8e:ce:ec:d2:1c:d4:11:63:a0:d6:72:2d:4c:74:5f:6d:
         26:f7:ae:fb:b5:b0:11:01:33:92:25:61:6e:04:d3:68:41:27:
         7c:da:e3:58:86:e3:e3:2f:b6:cd:05:d1:3f:82:fa:ca:a8:8c:
         15:27:4b:52:9a:3a:cf:ad:37:9e:7a:95:ba:17:24:27:be:29:
         37:0a:33:c7:d5:15:8a:4b:cf:52:6a:87:21:73:b2:7d:44:56:
         5a:87:38:91:11:a1:e6:06:94:ff:2e:a3:2d:d1:92:7d:b3:cd:
         f8:ae:47:ff:1d:f3:0d:06:92:0c:94:7e:29:20:2d:5e:a2:8c:
         41:45:1c:3f:94:e4:fa:2d:83:bc:af:a4:26:19:95:eb:5c:b5:
         44:ed:75:e7:ec:1d:41:c3:7e:0c:ae:56:e9:2f:22:c9:9c:3c:
         9f:41:b2:36:76:a8:ce:77:81:02:44:7e:9b:51:b7:44:90:1a:
         b4:9b:b8:a2:f7:02:9e:27:64:3f:d6:ac:78:08:6b:15:3f:d7:
         22:13:ed:28:3f:95:6a:f7:97:83:43:76:b2:ea:38:8d:64:fa:
         e0:29:7b:d7:16:10:d4:c1:2c:bc:68:00:8a:0b:99:39:aa:32:
         90:8d:b2:0c:f7:e1:b8:4d:1c:9b:39:cf:33:40:46:39:36:73:
         e2:af:bd:3e:95:01:04:76
-----BEGIN CERTIFICATE-----
MIIFSjCCAzKgAwIBAgIEEjRWejANBgkqhkiG9w0BAQsFADAnMSUwIwYDVQQDDBxT
UksxX3NoYTI1Nl80MDk2XzY1NTM3X3YzX2NhMB4XDTIxMTAxOTE3Mjk1NVoXDTMx
MTAxNzE3Mjk1NVowKjEoMCYGA1UEAwwfSU1HMV8xX3NoYTI1Nl80MDk2XzY1NTM3
X3YzX3VzcjCCAiIwDQYJKoZIhvcNAQEBBQADggIPADCCAgoCggIBAMKrvj8SvlUP
ikkUdhf7XXjo3YIAMgXgflYLRvW5WWTuHxZwOIfzAuaheyr+X3P1vbolns6RcF8j
AMXK6VufCX7h1mnsje9DfOsyLIUe9dVPP2AxlUlvVZAOh5BTI65dEuLBk0bHLaTu
IWmLDiaN1lcx+M8IzxK6w2Q/RVVyGXuA+bqx0RpNMkRec1AD0tkHgkNgD6ROmORl
Ko71YyK1M3J5qwAohVDVZYkL02gM4xOck4ZEjBeUgLcrqh3H0u37XhHsWFeZ5K+m
fEk454+ZUIYJKImkXCWAODEjbSV/SWzElU5DDuiTP86/trGaLonvUZCPleGtsjBQ
mbScuToRFTu/3vnlrhWZLzlqUBGjzGDd8af0l6KG8jPtmVFoUqhkRdxx4wmPOQNA
YxPC/yYZf+eOvTkPbtZdAbA14/7Q+bTn0ejSFP0MSyj3XcYPMGjC3a/OaNtXva/I
1q80R4iOebpJUje8emBSlfDFif3yrNuFT9eRWSQlkLENfqsNuFzukMxN4pwLbILH
cTI2NW7ZL4kw4ZEILbyTZve8UoyCUf9jX86Oz5E5iC11Gw+YA4L2lIqsQLhXFPf1
jhDzomY4rD/TQZdyyCa8fzI/aAmAf5USzJqBXX8UbKkXuelPKTgAhXOhMw+DLyq1
ydeRZCnw8lS4L5EtWwQP6RifAXeqABifAgMBAAGjezB5MAkGA1UdEwQCMAAwLAYJ
YIZIAYb4QgENBB8WHU9wZW5TU0wgR2VuZXJhdGVkIENlcnRpZmljYXRlMB0GA1Ud
DgQWBBTCFCxkC+BHJl/pYDt38p9Z3VADDjAfBgNVHSMEGDAWgBTKFaSYgP61Uh7V
PsA2w2kgci1zMjANBgkqhkiG9w0BAQsFAAOCAgEAEGsXCoB9j9A20C8U3ch+iCDK
E+h7OEEO0F418Wip5oejSHIykbb1DELaPAYIcHx7esepIPraSXRLha5lUcGqAdT2
CElxXyGtob1Px3YRovQGjoaefCjk2TsI3D9SGYP7ID5+pLYM77JEIF0MQRVLGMCa
ZJ0XQ7vyCKP1faVQdzhEBlpKXQhNxH3S+/1cs4XTgYF5wcfVFbb5K6oagJGqKBu2
aKFf23zrHwOXyMGptZdZLZPtnEje4JyR2ziHKLrYy5JSp7wHz/T55RBzVD8pUDR2
5narq15LwGhnF7Q75yFXvflgCINdTIHTiaWK9qwJAAvddGowsCUQTHC7GGWOzuzS
HNQRY6DWci1MdF9tJveu+7WwEQEzkiVhbgTTaEEnfNrjWIbj4y+2zQXRP4L6yqiM
FSdLUpo6z603nnqVuhckJ74pNwozx9UVikvPUmqHIXOyfURWWoc4kRGh5gaU/y6j
LdGSfbPN+K5H/x3zDQaSDJR+KSAtXqKMQUUcP5Tk+i2DvK+kJhmV61y1RO115+wd
QcN+DK5W6S8iyZw8n0GyNnaozneBAkR+m1G3RJAatJu4ovcCnidkP9aseAhrFT/X
IhPtKD+VaveXg0N2suo4jWT64Cl71xYQ1MEsvGgAiguZOaoykI2yDPfhuE0cmznP
M0BGOTZz4q+9PpUBBHY=
-----END CERTIFICATE-----
