Certificate:
    Data:
        Version: 3 (0x2)
        Serial Number: 305419896 (0x12345678)
        Signature Algorithm: sha256WithRSAEncryption
        Issuer: CN=CA1_sha256_4096_65537_v3_ca
        Validity
            Not Before: Oct 19 17:29:55 2021 GMT
            Not After : Oct 17 17:29:55 2031 GMT
        Subject: CN=SRK1_sha256_4096_65537_v3_ca
        Subject Public Key Info:
            Public Key Algorithm: rsaEncryption
                RSA Public-Key: (4096 bit)
                Modulus:
                    00:bd:47:a9:0d:6a:8c:87:6e:d2:4f:85:b1:a6:57:
                    b5:2b:81:c0:f1:8f:c2:57:51:63:48:d3:92:3d:e3:
                    d0:d5:ce:06:a0:03:64:66:28:83:cb:51:b8:b4:2f:
                    f2:0c:47:28:cf:8e:53:ae:b0:9a:57:08:78:0f:5e:
                    e9:a7:83:79:5c:2a:2f:b8:a3:a7:cf:e9:ea:ce:7e:
                    20:3e:51:54:69:ed:b1:67:ad:f8:8f:97:c4:90:86:
                    21:6f:7d:4b:9d:25:c9:92:28:df:0e:72:2f:bf:71:
                    84:fb:ed:57:c5:99:51:02:30:51:7c:72:12:f3:49:
                    99:6b:0f:0a:f6:d9:d2:09:45:8d:78:32:ef:ce:8f:
                    18:c3:15:7b:c5:cc:da:41:19:de:43:54:55:79:26:
                    db:1e:48:21:7f:7b:4f:97:90:55:7f:07:54:79:f1:
                    ee:77:da:28:0c:0d:de:d4:c2:7d:be:6e:06:1e:b1:
                    33:22:20:90:31:14:23:58:e3:e2:34:ca:c1:32:e9:
                    41:5b:61:c9:ab:40:a8:41:e7:8b:4c:c9:6e:b6:db:
                    7b:1f:00:03:2b:0f:5d:da:80:6a:48:4d:d7:25:c5:
                    9f:c4:cc:1d:ee:46:5c:ad:22:2e:b6:43:c3:9d:49:
                    33:4f:84:23:17:d3:b5:6d:d7:95:c4:99:5a:d0:e4:
                    b3:84:13:0a:1f:80:9b:e6:e6:6b:78:b9:26:31:72:
                    a0:49:99:06:b5:c5:01:dd:56:64:de:ae:e1:6c:e1:
                    19:58:39:8a:45:74:ab:e0:7f:81:59:4e:b7:a9:ff:
                    1a:5f:13:54:48:f7:64:c1:22:31:26:19:f0:c3:53:
                    8c:08:55:0e:7f:61:80:a9:a9:de:a1:3e:14:e7:1d:
                    2c:21:94:14:85:fa:f8:ab:a4:5f:bb:6d:cc:e7:4f:
                    c0:b2:f3:a3:cc:85:2c:83:24:f0:63:99:f4:0c:13:
                    f6:bf:2d:13:77:b9:d9:fe:cf:80:82:a1:92:91:c2:
                    a5:06:3f:91:2a:62:bb:9f:02:bb:0e:af:fb:96:4a:
                    87:0f:9f:e0:82:83:b7:06:75:13:7d:7e:84:44:d8:
                    1b:de:f5:23:85:28:0e:b5:c4:13:1f:3a:31:e5:f9:
                    1d:d1:7d:2a:13:b5:3e:a3:e0:b5:00:1c:d8:25:3a:
                    50:27:78:ca:c3:3c:70:a7:5e:eb:15:67:4d:85:2c:
                    55:d7:44:6d:95:2b:59:4a:00:68:b1:ca:21:46:d8:
                    39:41:c2:e5:f9:4c:ec:ad:f5:87:c2:c8:6d:f8:ac:
                    98:ce:02:38:e3:49:17:4a:8c:56:55:47:e9:47:a5:
                    ff:9a:38:27:ab:7b:1c:3c:c0:15:62:87:01:45:05:
                    fe:73:7f
                Exponent: 65537 (0x10001)
        X509v3 extensions:
            X509v3 Subject Key Identifier: 
                CA:15:A4:98:80:FE:B5:52:1E:D5:3E:C0:36:C3:69:20:72:2D:73:32
            X509v3 Authority Key Identifier: 
                keyid:3E:98:BD:9D:78:73:7A:E1:18:B4:06:B0:CB:3B:97:4E:F7:31:1A:30
                DirName:/CN=CA1_sha256_4096_65537_v3_ca
                serial:7B:BF:64:15:79:71:16:7C:9F:B9:F8:04:0C:80:FE:49:3E:B1:BF:AA

            X509v3 Basic Constraints: critical
                CA:TRUE
            X509v3 Key Usage: 
                Certificate Sign
    Signature Algorithm: sha256WithRSAEncryption
         4a:ea:e3:49:e1:e8:e6:f1:b2:63:94:dc:13:95:c0:6c:bf:58:
         e9:25:41:a1:a8:08:97:e0:68:03:71:ed:b6:f3:52:7e:86:8c:
         03:b9:03:4c:0c:57:37:89:19:05:da:c5:4a:1b:1b:41:ef:2b:
         7a:e2:b1:38:bc:96:7c:8a:88:da:af:fd:97:64:f0:d5:1f:33:
         f1:6a:c4:da:eb:03:57:01:26:14:fa:8d:80:ea:3b:0f:e3:ae:
         86:0c:7d:8b:6c:c8:21:79:e4:34:d7:d3:24:ee:9c:95:d6:f3:
         b6:73:92:86:fc:59:30:2f:db:e6:51:32:1a:1c:da:f9:8a:c3:
         e4:7a:27:ad:bc:6e:a6:46:89:99:0b:e7:25:d2:98:93:36:36:
         c5:9c:3a:56:3d:e2:be:86:19:d0:89:eb:06:47:59:9f:dc:5e:
         11:0c:ff:63:7b:ac:a7:f2:44:65:18:34:0d:11:cb:96:7b:c9:
         72:2f:f6:42:79:ed:fb:fd:77:e9:2f:9b:ba:4f:8b:eb:20:67:
         46:04:1b:74:08:8d:3d:f4:91:9b:28:48:85:08:ad:80:ec:60:
         ac:9a:66:31:7e:59:c3:d9:83:e7:b7:cf:86:93:2d:4f:a7:e5:
         44:bb:f7:42:cf:72:40:7d:48:21:19:ff:cf:2a:95:9f:cf:8a:
         c7:f9:3d:ea:2e:6a:3d:f2:d6:14:28:58:bb:22:9c:80:1f:fb:
         63:60:67:65:2f:07:f4:49:cd:7e:5a:ae:fa:ac:12:9b:a6:90:
         28:78:ed:ea:bb:08:08:9b:c6:b5:34:71:1e:81:ec:9f:e6:a9:
         be:33:08:9a:8c:cc:5d:12:72:1f:55:4c:71:38:3d:c0:c3:e1:
         ad:23:ca:90:9a:00:96:78:ab:ba:50:cd:e2:02:92:02:42:ba:
         fb:68:3f:06:fd:2e:af:40:c0:fc:e0:8c:77:61:ee:58:b1:23:
         e1:b0:9e:dd:72:75:c0:26:07:87:e8:1d:36:16:49:60:f0:36:
         f5:06:92:4f:49:a4:91:1b:8c:24:4c:fa:dd:3f:de:62:2b:4a:
         77:b2:da:80:2b:cf:9a:29:32:7f:3a:b2:36:ac:a5:e1:45:5f:
         79:00:00:8f:37:d4:2b:b4:4d:36:69:be:e7:5e:e7:9b:35:4f:
         f1:e8:60:ba:f6:f8:6a:b6:7a:1e:71:30:2c:b8:10:ba:42:64:
         7b:c9:a3:c4:e7:8a:25:25:fb:62:f4:cf:ad:ae:0c:0f:47:95:
         ed:5a:b9:73:de:3f:6a:e8:99:f4:25:93:37:23:b1:f4:54:bf:
         75:db:6f:93:0d:96:e8:e4:fd:4f:46:f1:a1:fd:8f:0a:9d:9c:
         74:9e:48:ac:7e:3f:f9:f5
-----BEGIN CERTIFICATE-----
MIIFbzCCA1egAwIBAgIEEjRWeDANBgkqhkiG9w0BAQsFADAmMSQwIgYDVQQDFBtD
QTFfc2hhMjU2XzQwOTZfNjU1MzdfdjNfY2EwHhcNMjExMDE5MTcyOTU1WhcNMzEx
MDE3MTcyOTU1WjAnMSUwIwYDVQQDDBxTUksxX3NoYTI1Nl80MDk2XzY1NTM3X3Yz
X2NhMIICIjANBgkqhkiG9w0BAQEFAAOCAg8AMIICCgKCAgEAvUepDWqMh27ST4Wx
ple1K4HA8Y/CV1FjSNOSPePQ1c4GoANkZiiDy1G4tC/yDEcoz45TrrCaVwh4D17p
p4N5XCovuKOnz+nqzn4gPlFUae2xZ634j5fEkIYhb31LnSXJkijfDnIvv3GE++1X
xZlRAjBRfHIS80mZaw8K9tnSCUWNeDLvzo8YwxV7xczaQRneQ1RVeSbbHkghf3tP
l5BVfwdUefHud9ooDA3e1MJ9vm4GHrEzIiCQMRQjWOPiNMrBMulBW2HJq0CoQeeL
TMluttt7HwADKw9d2oBqSE3XJcWfxMwd7kZcrSIutkPDnUkzT4QjF9O1bdeVxJla
0OSzhBMKH4Cb5uZreLkmMXKgSZkGtcUB3VZk3q7hbOEZWDmKRXSr4H+BWU63qf8a
XxNUSPdkwSIxJhnww1OMCFUOf2GAqaneoT4U5x0sIZQUhfr4q6Rfu23M50/AsvOj
zIUsgyTwY5n0DBP2vy0Td7nZ/s+AgqGSkcKlBj+RKmK7nwK7Dq/7lkqHD5/ggoO3
BnUTfX6ERNgb3vUjhSgOtcQTHzox5fkd0X0qE7U+o+C1ABzYJTpQJ3jKwzxwp17r
FWdNhSxV10RtlStZSgBoscohRtg5QcLl+UzsrfWHwsht+KyYzgI440kXSoxWVUfp
R6X/mjgnq3scPMAVYocBRQX+c38CAwEAAaOBozCBoDAdBgNVHQ4EFgQUyhWkmID+
tVIe1T7ANsNpIHItczIwYQYDVR0jBFowWIAUPpi9nXhzeuEYtAawyzuXTvcxGjCh
KqQoMCYxJDAiBgNVBAMUG0NBMV9zaGEyNTZfNDA5Nl82NTUzN192M19jYYIUe79k
FXlxFnyfufgEDID+ST6xv6owDwYDVR0TAQH/BAUwAwEB/zALBgNVHQ8EBAMCAgQw
DQYJKoZIhvcNAQELBQADggIBAErq40nh6ObxsmOU3BOVwGy/WOklQaGoCJfgaANx
7bbzUn6GjAO5A0wMVzeJGQXaxUobG0HvK3risTi8lnyKiNqv/Zdk8NUfM/FqxNrr
A1cBJhT6jYDqOw/jroYMfYtsyCF55DTX0yTunJXW87Zzkob8WTAv2+ZRMhoc2vmK
w+R6J628bqZGiZkL5yXSmJM2NsWcOlY94r6GGdCJ6wZHWZ/cXhEM/2N7rKfyRGUY
NA0Ry5Z7yXIv9kJ57fv9d+kvm7pPi+sgZ0YEG3QIjT30kZsoSIUIrYDsYKyaZjF+
WcPZg+e3z4aTLU+n5US790LPckB9SCEZ/88qlZ/Pisf5Peouaj3y1hQoWLsinIAf
+2NgZ2UvB/RJzX5arvqsEpumkCh47eq7CAibxrU0cR6B7J/mqb4zCJqMzF0Sch9V
THE4PcDD4a0jypCaAJZ4q7pQzeICkgJCuvtoPwb9Lq9AwPzgjHdh7lixI+Gwnt1y
dcAmB4foHTYWSWDwNvUGkk9JpJEbjCRM+t0/3mIrSney2oArz5opMn86sjaspeFF
X3kAAI831Cu0TTZpvude55s1T/HoYLr2+Gq2eh5xMCy4ELpCZHvJo8TniiUl+2L0
z62uDA9Hle1auXPeP2romfQlkzcjsfRUv3Xbb5MNlujk/U9G8aH9jwqdnHSeSKx+
P/n1
-----END CERTIFICATE-----
