Certificate:
    Data:
        Version: 3 (0x2)
        Serial Number: 305419903 (0x1234567f)
        Signature Algorithm: sha256WithRSAEncryption
        Issuer: CN=SRK3_sha256_4096_65537_v3_ca
        Validity
            Not Before: Oct 19 17:29:57 2021 GMT
            Not After : Oct 17 17:29:57 2031 GMT
        Subject: CN=CSF3_1_sha256_4096_65537_v3_usr
        Subject Public Key Info:
            Public Key Algorithm: rsaEncryption
                RSA Public-Key: (4096 bit)
                Modulus:
                    00:bf:97:cb:61:d3:a9:9e:61:3b:6f:35:df:27:70:
                    33:05:f7:fe:c9:83:0d:d1:c0:e0:37:60:bb:90:78:
                    8f:69:0a:ba:8a:33:08:47:f3:d4:0d:26:9a:46:89:
                    7f:ba:b7:f1:2f:46:24:5e:b4:14:ad:98:ff:10:9b:
                    a3:ca:7b:fd:1a:62:8f:5f:17:58:64:3c:a5:53:73:
                    72:c5:02:ac:14:a6:e0:b9:5b:47:ad:2e:94:b7:9c:
                    9d:35:6b:1f:f8:9b:75:d3:66:85:28:69:dd:8a:e4:
                    1f:53:45:39:0e:64:e9:8a:08:12:13:bb:82:fc:82:
                    f8:c7:fd:93:99:07:82:37:de:61:72:b0:c3:57:b0:
                    fc:6d:6f:96:52:2d:2b:10:a8:38:74:27:88:43:58:
                    cb:69:7e:7e:33:ed:ae:d8:d2:63:8e:ba:2d:19:3a:
                    47:ce:44:b1:56:1a:ac:ea:b6:eb:09:db:ab:9f:23:
                    dd:9a:27:cd:2b:18:5a:48:e3:9b:e4:d2:69:27:c3:
                    e1:0e:71:9a:5f:5e:fb:26:0b:a1:1e:56:5e:7f:fc:
                    cc:42:6d:28:4b:56:ab:93:e2:35:c1:11:32:94:95:
                    5f:18:56:6a:bd:cf:ee:0a:bf:c0:fd:ac:a7:ac:df:
                    79:eb:be:6f:52:f5:a2:91:08:30:f2:f5:07:17:5a:
                    50:46:86:e8:b4:b2:c3:12:be:f8:02:72:30:c3:22:
                    7a:f8:c6:8b:0b:7c:20:07:d0:4c:f3:5d:53:99:73:
                    92:49:05:c2:f1:fd:a7:c7:a0:ed:a2:a6:3f:31:2a:
                    ce:4b:51:7e:6b:c9:7f:b1:12:02:a8:d9:d1:21:87:
                    5a:f8:d4:9e:49:48:03:fc:f0:8e:cd:d9:2b:02:7d:
                    31:b9:94:99:8d:d4:48:5a:06:08:57:32:9b:5e:e5:
                    dd:36:70:c2:ca:61:6c:84:99:e2:5c:15:32:9e:7d:
                    4b:52:8d:70:8c:cf:a1:79:29:63:31:f2:5f:b3:f8:
                    ee:90:e1:5c:bb:12:60:5b:34:ce:2e:48:12:1c:77:
                    55:3f:a8:59:c0:ba:57:89:b6:da:18:5a:f3:7b:cd:
                    34:38:6b:ba:3a:83:b7:fb:b4:ad:db:23:55:e1:53:
                    98:01:08:c0:96:ca:fd:35:e2:3c:6e:fe:5c:cb:03:
                    28:f0:a3:0e:ae:b3:e8:98:ab:d5:85:51:81:f6:8c:
                    ed:b4:c7:a3:db:d3:43:aa:58:ab:34:2c:a9:54:95:
                    dc:1b:dd:3c:1e:b1:87:95:5e:1f:45:05:53:2b:90:
                    6e:8f:e9:78:51:fe:c3:f2:a4:ec:f8:fa:b9:44:62:
                    63:ed:25:ac:97:5f:11:7b:10:b1:78:4d:46:44:2d:
                    a4:dc:93
                Exponent: 65537 (0x10001)
        X509v3 extensions:
            X509v3 Basic Constraints: 
                CA:FALSE
            Netscape Comment: 
                OpenSSL Generated Certificate
            X509v3 Subject Key Identifier: 
                DC:47:C1:0D:12:D7:F7:2B:2D:D7:82:6C:E9:08:F8:14:30:58:69:3F
            X509v3 Authority Key Identifier: 
                keyid:D0:D9:50:88:7C:60:10:3E:38:07:04:DB:50:0F:1B:A4:F3:EF:9F:81

    Signature Algorithm: sha256WithRSAEncryption
         09:ed:b4:e5:e2:4a:29:60:d1:ee:46:e6:68:01:aa:8e:b0:e6:
         60:7d:04:c8:5f:7f:ae:4c:fe:07:b2:50:5b:4f:b9:9c:38:6c:
         45:b0:a9:6b:73:2a:5d:ac:87:0f:e0:be:e7:df:8e:30:b0:3a:
         b5:a0:71:33:c3:dd:b3:1a:76:55:fc:d3:d9:a2:36:68:33:23:
         58:ac:dc:51:80:a3:c6:50:2d:cf:11:3d:00:b7:b0:7a:84:e1:
         90:35:52:8f:ee:83:f5:67:d8:48:ea:91:b5:14:af:97:24:52:
         12:8e:95:64:48:63:f4:dc:97:df:de:70:e7:c7:86:c1:48:fe:
         a3:a1:9a:72:80:69:b2:18:14:7f:75:1c:78:0e:8a:f3:df:35:
         90:6f:a8:e5:4a:1a:61:3a:1f:2d:24:77:af:d4:4b:d6:a0:08:
         a5:ef:7d:29:a6:20:5d:5e:f0:bc:d6:63:62:36:80:6b:3b:52:
         61:74:a2:70:58:62:80:ce:bb:71:63:a1:24:83:dc:df:bd:a4:
         9c:ff:a4:3c:38:f8:63:44:56:98:73:ff:b5:a8:30:0f:92:06:
         e1:50:4b:f3:fc:23:29:22:56:81:4b:a2:45:7f:59:b5:d0:dc:
         f0:c9:e5:e4:18:90:0b:8e:32:c7:b0:6e:97:a8:b7:7b:6c:00:
         01:b7:a0:47:19:45:ce:b2:b1:3e:34:89:2d:82:39:8e:a0:32:
         6e:89:f9:19:da:ea:67:db:86:28:58:be:f3:71:0e:45:33:8b:
         49:d3:bb:20:58:26:2c:ac:fd:df:6d:99:04:21:4a:2b:91:56:
         6a:3d:68:ab:49:98:a1:00:f8:5e:f9:ee:90:f1:38:1a:52:a8:
         72:5f:59:99:07:49:0b:38:21:0d:c8:00:0a:08:e2:ae:ff:fe:
         13:d2:9b:3b:40:67:69:82:65:21:30:41:79:fe:63:b0:07:a6:
         12:fb:54:c2:4b:81:5e:02:0c:ab:b2:f3:c7:01:74:b4:b3:ca:
         79:5d:e8:4a:1b:e6:2d:9a:f0:62:b1:90:a4:6a:a0:5e:05:6b:
         62:8f:8a:aa:9a:ce:a2:5d:f4:e2:a9:b8:29:0e:c4:55:87:94:
         7c:b2:b2:7e:b3:52:34:8a:7c:14:cd:d0:7d:a4:1b:86:1f:89:
         e6:33:ad:6b:a6:71:8d:92:33:a9:fa:df:35:62:36:09:56:fd:
         6a:bd:2a:2a:be:ba:b2:36:cd:31:53:01:5c:af:56:09:2c:ae:
         d2:8c:54:23:12:07:e0:b7:b0:f2:2f:07:c6:b3:2c:da:d8:6d:
         0e:82:22:98:7e:8f:39:8f:e9:75:e8:3d:9a:96:fd:6c:86:0c:
         7c:6c:eb:a2:b7:64:b3:27
-----BEGIN CERTIFICATE-----
MIIFSjCCAzKgAwIBAgIEEjRWfzANBgkqhkiG9w0BAQsFADAnMSUwIwYDVQQDDBxT
UkszX3NoYTI1Nl80MDk2XzY1NTM3X3YzX2NhMB4XDTIxMTAxOTE3Mjk1N1oXDTMx
MTAxNzE3Mjk1N1owKjEoMCYGA1UEAwwfQ1NGM18xX3NoYTI1Nl80MDk2XzY1NTM3
X3YzX3VzcjCCAiIwDQYJKoZIhvcNAQEBBQADggIPADCCAgoCggIBAL+Xy2HTqZ5h
O2813ydwMwX3/smDDdHA4Ddgu5B4j2kKuoozCEfz1A0mmkaJf7q38S9GJF60FK2Y
/xCbo8p7/Rpij18XWGQ8pVNzcsUCrBSm4LlbR60ulLecnTVrH/ibddNmhShp3Yrk
H1NFOQ5k6YoIEhO7gvyC+Mf9k5kHgjfeYXKww1ew/G1vllItKxCoOHQniENYy2l+
fjPtrtjSY466LRk6R85EsVYarOq26wnbq58j3ZonzSsYWkjjm+TSaSfD4Q5xml9e
+yYLoR5WXn/8zEJtKEtWq5PiNcERMpSVXxhWar3P7gq/wP2sp6zfeeu+b1L1opEI
MPL1BxdaUEaG6LSywxK++AJyMMMievjGiwt8IAfQTPNdU5lzkkkFwvH9p8eg7aKm
PzEqzktRfmvJf7ESAqjZ0SGHWvjUnklIA/zwjs3ZKwJ9MbmUmY3USFoGCFcym17l
3TZwwsphbISZ4lwVMp59S1KNcIzPoXkpYzHyX7P47pDhXLsSYFs0zi5IEhx3VT+o
WcC6V4m22hha83vNNDhrujqDt/u0rdsjVeFTmAEIwJbK/TXiPG7+XMsDKPCjDq6z
6Jir1YVRgfaM7bTHo9vTQ6pYqzQsqVSV3BvdPB6xh5VeH0UFUyuQbo/peFH+w/Kk
7Pj6uURiY+0lrJdfEXsQsXhNRkQtpNyTAgMBAAGjezB5MAkGA1UdEwQCMAAwLAYJ
YIZIAYb4QgENBB8WHU9wZW5TU0wgR2VuZXJhdGVkIENlcnRpZmljYXRlMB0GA1Ud
DgQWBBTcR8ENEtf3Ky3XgmzpCPgUMFhpPzAfBgNVHSMEGDAWgBTQ2VCIfGAQPjgH
BNtQDxuk8++fgTANBgkqhkiG9w0BAQsFAAOCAgEACe205eJKKWDR7kbmaAGqjrDm
YH0EyF9/rkz+B7JQW0+5nDhsRbCpa3MqXayHD+C+59+OMLA6taBxM8Pdsxp2VfzT
2aI2aDMjWKzcUYCjxlAtzxE9ALeweoThkDVSj+6D9WfYSOqRtRSvlyRSEo6VZEhj
9NyX395w58eGwUj+o6GacoBpshgUf3UceA6K8981kG+o5UoaYTofLSR3r9RL1qAI
pe99KaYgXV7wvNZjYjaAaztSYXSicFhigM67cWOhJIPc372knP+kPDj4Y0RWmHP/
tagwD5IG4VBL8/wjKSJWgUuiRX9ZtdDc8Mnl5BiQC44yx7Bul6i3e2wAAbegRxlF
zrKxPjSJLYI5jqAybon5GdrqZ9uGKFi+83EORTOLSdO7IFgmLKz9322ZBCFKK5FW
aj1oq0mYoQD4XvnukPE4GlKocl9ZmQdJCzghDcgACgjirv/+E9KbO0BnaYJlITBB
ef5jsAemEvtUwkuBXgIMq7LzxwF0tLPKeV3oShvmLZrwYrGQpGqgXgVrYo+KqprO
ol304qm4KQ7EVYeUfLKyfrNSNIp8FM3QfaQbhh+J5jOta6ZxjZIzqfrfNWI2CVb9
ar0qKr66sjbNMVMBXK9WCSyu0oxUIxIH4Lew8i8HxrMs2thtDoIimH6POY/pdeg9
mpb9bIYMfGzrordksyc=
-----END CERTIFICATE-----
